SF:/home/lonless/rust-projects/barks/common/src/allocator.rs
FN:54,_RNvMNtCsfe3fH1fQhFR_12barks_common9allocatorNtB2_19ThreadSafeAllocator11alloc_bytes
FN:80,_RNvMNtCsfe3fH1fQhFR_12barks_common9allocatorNtB2_19ThreadSafeAllocator15allocated_bytes
FN:86,_RNvMNtCsfe3fH1fQhFR_12barks_common9allocatorNtB2_19ThreadSafeAllocator18remaining_capacity
FN:47,_RNvMNtCsfe3fH1fQhFR_12barks_common9allocatorNtB2_19ThreadSafeAllocator3new
FN:68,_RNvMNtCsfe3fH1fQhFR_12barks_common9allocatorNtB2_19ThreadSafeAllocator5reset
FN:74,_RNvMNtCsfe3fH1fQhFR_12barks_common9allocatorNtB2_19ThreadSafeAllocator5stats
FN:61,_RNvMNtCsfe3fH1fQhFR_12barks_common9allocatorNtB2_19ThreadSafeAllocator9alloc_str
FN:147,_RNvMs1_NtCsfe3fH1fQhFR_12barks_common9allocatorNtB5_16AllocatorBuilder11track_stats
FN:141,_RNvMs1_NtCsfe3fH1fQhFR_12barks_common9allocatorNtB5_16AllocatorBuilder16initial_capacity
FN:159,_RNvMs1_NtCsfe3fH1fQhFR_12barks_common9allocatorNtB5_16AllocatorBuilder17build_thread_safe
FN:134,_RNvMs1_NtCsfe3fH1fQhFR_12barks_common9allocatorNtB5_16AllocatorBuilder3new
FN:153,_RNvMs1_NtCsfe3fH1fQhFR_12barks_common9allocatorNtB5_16AllocatorBuilder5build
FN:186,_RNvMs3_NtCsfe3fH1fQhFR_12barks_common9allocatorNtB5_22InternalAllocatorStats12record_reset
FN:180,_RNvMs3_NtCsfe3fH1fQhFR_12barks_common9allocatorNtB5_22InternalAllocatorStats17record_allocation
FN:191,_RNvMs3_NtCsfe3fH1fQhFR_12barks_common9allocatorNtB5_22InternalAllocatorStats9get_stats
FN:209,_RNvMs4_NtCsfe3fH1fQhFR_12barks_common9allocatorNtB5_20BumpaloAllocatorImpl3new
FN:119,_RNvXs0_NtCsfe3fH1fQhFR_12barks_common9allocatorNtB5_15AllocatorConfigNtNtCs54tgE0qq4eT_4core7default7Default7default
FN:166,_RNvXs2_NtCsfe3fH1fQhFR_12barks_common9allocatorNtB5_16AllocatorBuilderNtNtCs54tgE0qq4eT_4core7default7Default7default
FN:230,_RNvXs5_NtCsfe3fH1fQhFR_12barks_common9allocatorNtB5_20BumpaloAllocatorImplNtB5_9Allocator11alloc_bytes
FN:260,_RNvXs5_NtCsfe3fH1fQhFR_12barks_common9allocatorNtB5_20BumpaloAllocatorImplNtB5_9Allocator15allocated_bytes
FN:264,_RNvXs5_NtCsfe3fH1fQhFR_12barks_common9allocatorNtB5_20BumpaloAllocatorImplNtB5_9Allocator18remaining_capacity
FN:245,_RNvXs5_NtCsfe3fH1fQhFR_12barks_common9allocatorNtB5_20BumpaloAllocatorImplNtB5_9Allocator5reset
FN:252,_RNvXs5_NtCsfe3fH1fQhFR_12barks_common9allocatorNtB5_20BumpaloAllocatorImplNtB5_9Allocator5stats
FN:237,_RNvXs5_NtCsfe3fH1fQhFR_12barks_common9allocatorNtB5_20BumpaloAllocatorImplNtB5_9Allocator9alloc_str
FN:93,_RNvXs_NtCsfe3fH1fQhFR_12barks_common9allocatorNtB4_19ThreadSafeAllocatorNtNtCs54tgE0qq4eT_4core5clone5Clone5clone
FNDA:0,_RNvMNtCsfe3fH1fQhFR_12barks_common9allocatorNtB2_19ThreadSafeAllocator11alloc_bytes
FNDA:0,_RNvMNtCsfe3fH1fQhFR_12barks_common9allocatorNtB2_19ThreadSafeAllocator15allocated_bytes
FNDA:0,_RNvMNtCsfe3fH1fQhFR_12barks_common9allocatorNtB2_19ThreadSafeAllocator18remaining_capacity
FNDA:0,_RNvMNtCsfe3fH1fQhFR_12barks_common9allocatorNtB2_19ThreadSafeAllocator3new
FNDA:0,_RNvMNtCsfe3fH1fQhFR_12barks_common9allocatorNtB2_19ThreadSafeAllocator5reset
FNDA:0,_RNvMNtCsfe3fH1fQhFR_12barks_common9allocatorNtB2_19ThreadSafeAllocator5stats
FNDA:0,_RNvMNtCsfe3fH1fQhFR_12barks_common9allocatorNtB2_19ThreadSafeAllocator9alloc_str
FNDA:0,_RNvMs1_NtCsfe3fH1fQhFR_12barks_common9allocatorNtB5_16AllocatorBuilder11track_stats
FNDA:0,_RNvMs1_NtCsfe3fH1fQhFR_12barks_common9allocatorNtB5_16AllocatorBuilder16initial_capacity
FNDA:0,_RNvMs1_NtCsfe3fH1fQhFR_12barks_common9allocatorNtB5_16AllocatorBuilder17build_thread_safe
FNDA:0,_RNvMs1_NtCsfe3fH1fQhFR_12barks_common9allocatorNtB5_16AllocatorBuilder3new
FNDA:0,_RNvMs1_NtCsfe3fH1fQhFR_12barks_common9allocatorNtB5_16AllocatorBuilder5build
FNDA:0,_RNvMs3_NtCsfe3fH1fQhFR_12barks_common9allocatorNtB5_22InternalAllocatorStats12record_reset
FNDA:0,_RNvMs3_NtCsfe3fH1fQhFR_12barks_common9allocatorNtB5_22InternalAllocatorStats17record_allocation
FNDA:0,_RNvMs3_NtCsfe3fH1fQhFR_12barks_common9allocatorNtB5_22InternalAllocatorStats9get_stats
FNDA:0,_RNvMs4_NtCsfe3fH1fQhFR_12barks_common9allocatorNtB5_20BumpaloAllocatorImpl3new
FNDA:0,_RNvXs0_NtCsfe3fH1fQhFR_12barks_common9allocatorNtB5_15AllocatorConfigNtNtCs54tgE0qq4eT_4core7default7Default7default
FNDA:0,_RNvXs2_NtCsfe3fH1fQhFR_12barks_common9allocatorNtB5_16AllocatorBuilderNtNtCs54tgE0qq4eT_4core7default7Default7default
FNDA:0,_RNvXs5_NtCsfe3fH1fQhFR_12barks_common9allocatorNtB5_20BumpaloAllocatorImplNtB5_9Allocator11alloc_bytes
FNDA:0,_RNvXs5_NtCsfe3fH1fQhFR_12barks_common9allocatorNtB5_20BumpaloAllocatorImplNtB5_9Allocator15allocated_bytes
FNDA:0,_RNvXs5_NtCsfe3fH1fQhFR_12barks_common9allocatorNtB5_20BumpaloAllocatorImplNtB5_9Allocator18remaining_capacity
FNDA:0,_RNvXs5_NtCsfe3fH1fQhFR_12barks_common9allocatorNtB5_20BumpaloAllocatorImplNtB5_9Allocator5reset
FNDA:0,_RNvXs5_NtCsfe3fH1fQhFR_12barks_common9allocatorNtB5_20BumpaloAllocatorImplNtB5_9Allocator5stats
FNDA:0,_RNvXs5_NtCsfe3fH1fQhFR_12barks_common9allocatorNtB5_20BumpaloAllocatorImplNtB5_9Allocator9alloc_str
FNDA:0,_RNvXs_NtCsfe3fH1fQhFR_12barks_common9allocatorNtB4_19ThreadSafeAllocatorNtNtCs54tgE0qq4eT_4core5clone5Clone5clone
FNF:25
FNH:0
DA:47,0
DA:48,0
DA:49,0
DA:50,0
DA:51,0
DA:54,0
DA:55,0
DA:56,0
DA:57,0
DA:58,0
DA:61,0
DA:62,0
DA:63,0
DA:64,0
DA:65,0
DA:68,0
DA:69,0
DA:70,0
DA:71,0
DA:74,0
DA:75,0
DA:76,0
DA:77,0
DA:80,0
DA:81,0
DA:82,0
DA:83,0
DA:86,0
DA:87,0
DA:88,0
DA:89,0
DA:93,0
DA:94,0
DA:95,0
DA:96,0
DA:97,0
DA:119,0
DA:120,0
DA:121,0
DA:122,0
DA:123,0
DA:124,0
DA:134,0
DA:135,0
DA:136,0
DA:137,0
DA:138,0
DA:141,0
DA:142,0
DA:143,0
DA:144,0
DA:147,0
DA:148,0
DA:149,0
DA:150,0
DA:153,0
DA:154,0
DA:155,0
DA:156,0
DA:159,0
DA:160,0
DA:161,0
DA:162,0
DA:166,0
DA:167,0
DA:168,0
DA:180,0
DA:181,0
DA:182,0
DA:183,0
DA:184,0
DA:186,0
DA:187,0
DA:188,0
DA:189,0
DA:191,0
DA:192,0
DA:193,0
DA:194,0
DA:195,0
DA:196,0
DA:197,0
DA:198,0
DA:209,0
DA:210,0
DA:213,0
DA:214,0
DA:215,0
DA:216,0
DA:217,0
DA:219,0
DA:220,0
DA:222,0
DA:225,0
DA:226,0
DA:230,0
DA:231,0
DA:232,0
DA:233,0
DA:234,0
DA:235,0
DA:237,0
DA:238,0
DA:239,0
DA:240,0
DA:241,0
DA:242,0
DA:243,0
DA:245,0
DA:246,0
DA:247,0
DA:248,0
DA:249,0
DA:250,0
DA:252,0
DA:253,0
DA:254,0
DA:256,0
DA:258,0
DA:260,0
DA:261,0
DA:262,0
DA:264,0
DA:265,0
DA:266,0
DA:267,0
DA:268,0
DA:269,0
DA:270,0
BRF:0
BRH:0
LF:129
LH:0
end_of_record
SF:/home/lonless/rust-projects/barks/common/src/cache.rs
FN:136,_RINvMs0_NtCsfe3fH1fQhFR_12barks_common5cacheNtB6_12CacheBuilder5buildppEB8_
FN:204,_RNCNvMs3_NtCsfe3fH1fQhFR_12barks_common5cacheINtB7_13MokaCacheImplppE3new0B9_
FN:277,_RNCNvXININtCsfe3fH1fQhFR_12barks_common5cachesc_0ppEINtB7_13MokaCacheImplppEINtB7_5CacheppE12contains_key0B9_
FN:247,_RNCNvXININtCsfe3fH1fQhFR_12barks_common5cachesc_0ppEINtB7_13MokaCacheImplppEINtB7_5CacheppE3get0B9_
FN:285,_RNCNvXININtCsfe3fH1fQhFR_12barks_common5cachesc_0ppEINtB7_13MokaCacheImplppEINtB7_5CacheppE3len0B9_
FN:260,_RNCNvXININtCsfe3fH1fQhFR_12barks_common5cachesc_0ppEINtB7_13MokaCacheImplppEINtB7_5CacheppE3put0B9_
FN:281,_RNCNvXININtCsfe3fH1fQhFR_12barks_common5cachesc_0ppEINtB7_13MokaCacheImplppEINtB7_5CacheppE5clear0B9_
FN:289,_RNCNvXININtCsfe3fH1fQhFR_12barks_common5cachesc_0ppEINtB7_13MokaCacheImplppEINtB7_5CacheppE5stats0B9_
FN:273,_RNCNvXININtCsfe3fH1fQhFR_12barks_common5cachesc_0ppEINtB7_13MokaCacheImplppEINtB7_5CacheppE6remove0B9_
FN:45,_RNCNvYpINtNtCsfe3fH1fQhFR_12barks_common5cache5CacheppE8is_empty0Ba_
FN:199,_RNvMs3_NtCsfe3fH1fQhFR_12barks_common5cacheINtB5_13MokaCacheImplppE3newB7_
FN:279,_RNvXININtCsfe3fH1fQhFR_12barks_common5cachesc_0ppEINtB5_13MokaCacheImplppEINtB5_5CacheppE12contains_keyB7_
FN:258,_RNvXININtCsfe3fH1fQhFR_12barks_common5cachesc_0ppEINtB5_13MokaCacheImplppEINtB5_5CacheppE3getB7_
FN:287,_RNvXININtCsfe3fH1fQhFR_12barks_common5cachesc_0ppEINtB5_13MokaCacheImplppEINtB5_5CacheppE3lenB7_
FN:271,_RNvXININtCsfe3fH1fQhFR_12barks_common5cachesc_0ppEINtB5_13MokaCacheImplppEINtB5_5CacheppE3putB7_
FN:283,_RNvXININtCsfe3fH1fQhFR_12barks_common5cachesc_0ppEINtB5_13MokaCacheImplppEINtB5_5CacheppE5clearB7_
FN:291,_RNvXININtCsfe3fH1fQhFR_12barks_common5cachesc_0ppEINtB5_13MokaCacheImplppEINtB5_5CacheppE5statsB7_
FN:275,_RNvXININtCsfe3fH1fQhFR_12barks_common5cachesc_0ppEINtB5_13MokaCacheImplppEINtB5_5CacheppE6removeB7_
FN:47,_RNvYpINtNtCsfe3fH1fQhFR_12barks_common5cache5CacheppE8is_emptyB8_
FNDA:0,_RINvMs0_NtCsfe3fH1fQhFR_12barks_common5cacheNtB6_12CacheBuilder5buildppEB8_
FNDA:0,_RNCNvMs3_NtCsfe3fH1fQhFR_12barks_common5cacheINtB7_13MokaCacheImplppE3new0B9_
FNDA:0,_RNCNvXININtCsfe3fH1fQhFR_12barks_common5cachesc_0ppEINtB7_13MokaCacheImplppEINtB7_5CacheppE12contains_key0B9_
FNDA:0,_RNCNvXININtCsfe3fH1fQhFR_12barks_common5cachesc_0ppEINtB7_13MokaCacheImplppEINtB7_5CacheppE3get0B9_
FNDA:0,_RNCNvXININtCsfe3fH1fQhFR_12barks_common5cachesc_0ppEINtB7_13MokaCacheImplppEINtB7_5CacheppE3len0B9_
FNDA:0,_RNCNvXININtCsfe3fH1fQhFR_12barks_common5cachesc_0ppEINtB7_13MokaCacheImplppEINtB7_5CacheppE3put0B9_
FNDA:0,_RNCNvXININtCsfe3fH1fQhFR_12barks_common5cachesc_0ppEINtB7_13MokaCacheImplppEINtB7_5CacheppE5clear0B9_
FNDA:0,_RNCNvXININtCsfe3fH1fQhFR_12barks_common5cachesc_0ppEINtB7_13MokaCacheImplppEINtB7_5CacheppE5stats0B9_
FNDA:0,_RNCNvXININtCsfe3fH1fQhFR_12barks_common5cachesc_0ppEINtB7_13MokaCacheImplppEINtB7_5CacheppE6remove0B9_
FNDA:0,_RNCNvYpINtNtCsfe3fH1fQhFR_12barks_common5cache5CacheppE8is_empty0Ba_
FNDA:0,_RNvMs3_NtCsfe3fH1fQhFR_12barks_common5cacheINtB5_13MokaCacheImplppE3newB7_
FNDA:0,_RNvXININtCsfe3fH1fQhFR_12barks_common5cachesc_0ppEINtB5_13MokaCacheImplppEINtB5_5CacheppE12contains_keyB7_
FNDA:0,_RNvXININtCsfe3fH1fQhFR_12barks_common5cachesc_0ppEINtB5_13MokaCacheImplppEINtB5_5CacheppE3getB7_
FNDA:0,_RNvXININtCsfe3fH1fQhFR_12barks_common5cachesc_0ppEINtB5_13MokaCacheImplppEINtB5_5CacheppE3lenB7_
FNDA:0,_RNvXININtCsfe3fH1fQhFR_12barks_common5cachesc_0ppEINtB5_13MokaCacheImplppEINtB5_5CacheppE3putB7_
FNDA:0,_RNvXININtCsfe3fH1fQhFR_12barks_common5cachesc_0ppEINtB5_13MokaCacheImplppEINtB5_5CacheppE5clearB7_
FNDA:0,_RNvXININtCsfe3fH1fQhFR_12barks_common5cachesc_0ppEINtB5_13MokaCacheImplppEINtB5_5CacheppE5statsB7_
FNDA:0,_RNvXININtCsfe3fH1fQhFR_12barks_common5cachesc_0ppEINtB5_13MokaCacheImplppEINtB5_5CacheppE6removeB7_
FNDA:0,_RNvYpINtNtCsfe3fH1fQhFR_12barks_common5cache5CacheppE8is_emptyB8_
FNF:19
FNH:0
DA:45,0
DA:46,0
DA:47,0
DA:136,0
DA:137,0
DA:138,0
DA:139,0
DA:140,0
DA:141,0
DA:142,0
DA:143,0
DA:199,0
DA:200,0
DA:201,0
DA:202,0
DA:203,0
DA:204,0
DA:209,0
DA:210,0
DA:211,0
DA:212,0
DA:214,0
DA:216,0
DA:217,0
DA:218,0
DA:220,0
DA:221,0
DA:222,0
DA:224,0
DA:225,0
DA:226,0
DA:228,0
DA:229,0
DA:230,0
DA:233,0
DA:234,0
DA:235,0
DA:236,0
DA:237,0
DA:238,0
DA:247,0
DA:248,0
DA:251,0
DA:252,0
DA:253,0
DA:254,0
DA:255,0
DA:257,0
DA:258,0
DA:260,0
DA:261,0
DA:262,0
DA:263,0
DA:264,0
DA:265,0
DA:268,0
DA:269,0
DA:270,0
DA:271,0
DA:273,0
DA:274,0
DA:275,0
DA:277,0
DA:278,0
DA:279,0
DA:281,0
DA:282,0
DA:283,0
DA:285,0
DA:286,0
DA:287,0
DA:289,0
DA:290,0
DA:291,0
BRF:0
BRH:0
LF:83
LH:0
end_of_record
SF:/home/lonless/rust-projects/barks/common/src/compression.rs
FN:277,_RNCNvXs6_NtCsfe3fH1fQhFR_12barks_common11compressionNtB7_14ZstdCompressorNtB7_10Compressor10decompress0B9_
FN:265,_RNCNvXs6_NtCsfe3fH1fQhFR_12barks_common11compressionNtB7_14ZstdCompressorNtB7_10Compressor8compress0B9_
FN:337,_RNCNvXs8_NtCsfe3fH1fQhFR_12barks_common11compressionNtB7_13Lz4CompressorNtB7_10Compressor10decompress0B9_
FN:409,_RNCNvXsa_NtCsfe3fH1fQhFR_12barks_common11compressionNtB7_16SnappyCompressorNtB7_10Compressor10decompress0B9_
FN:390,_RNCNvXsa_NtCsfe3fH1fQhFR_12barks_common11compressionNtB7_16SnappyCompressorNtB7_10Compressor8compress0B9_
FN:394,_RNCNvXsa_NtCsfe3fH1fQhFR_12barks_common11compressionNtB7_16SnappyCompressorNtB7_10Compressor8compresss_0B9_
FN:25,_RNvMNtCsfe3fH1fQhFR_12barks_common11compressionNtB2_20CompressionAlgorithm13default_level
FN:34,_RNvMNtCsfe3fH1fQhFR_12barks_common11compressionNtB2_20CompressionAlgorithm15supports_levels
FN:113,_RNvMs0_NtCsfe3fH1fQhFR_12barks_common11compressionNtB5_17CompressionConfig10with_level
FN:119,_RNvMs0_NtCsfe3fH1fQhFR_12barks_common11compressionNtB5_17CompressionConfig19with_stats_tracking
FN:104,_RNvMs0_NtCsfe3fH1fQhFR_12barks_common11compressionNtB5_17CompressionConfig3new
FN:158,_RNvMs2_NtCsfe3fH1fQhFR_12barks_common11compressionNtB5_18CompressionBuilder11track_stats
FN:145,_RNvMs2_NtCsfe3fH1fQhFR_12barks_common11compressionNtB5_18CompressionBuilder14with_algorithm
FN:138,_RNvMs2_NtCsfe3fH1fQhFR_12barks_common11compressionNtB5_18CompressionBuilder3new
FN:164,_RNvMs2_NtCsfe3fH1fQhFR_12barks_common11compressionNtB5_18CompressionBuilder5build
FN:152,_RNvMs2_NtCsfe3fH1fQhFR_12barks_common11compressionNtB5_18CompressionBuilder5level
FN:199,_RNvMs4_NtCsfe3fH1fQhFR_12barks_common11compressionNtB5_24InternalCompressionStats18record_compression
FN:207,_RNvMs4_NtCsfe3fH1fQhFR_12barks_common11compressionNtB5_24InternalCompressionStats20record_decompression
FN:213,_RNvMs4_NtCsfe3fH1fQhFR_12barks_common11compressionNtB5_24InternalCompressionStats5reset
FN:221,_RNvMs4_NtCsfe3fH1fQhFR_12barks_common11compressionNtB5_24InternalCompressionStats9get_stats
FN:240,_RNvMs5_NtCsfe3fH1fQhFR_12barks_common11compressionNtB5_14ZstdCompressor3new
FN:314,_RNvMs7_NtCsfe3fH1fQhFR_12barks_common11compressionNtB5_13Lz4Compressor3new
FN:374,_RNvMs9_NtCsfe3fH1fQhFR_12barks_common11compressionNtB5_16SnappyCompressor3new
FN:81,_RNvMs_NtCsfe3fH1fQhFR_12barks_common11compressionNtB4_16CompressionStats13space_savings
FN:72,_RNvMs_NtCsfe3fH1fQhFR_12barks_common11compressionNtB4_16CompressionStats17compression_ratio
FN:126,_RNvXs1_NtCsfe3fH1fQhFR_12barks_common11compressionNtB5_17CompressionConfigNtNtCs54tgE0qq4eT_4core7default7Default7default
FN:183,_RNvXs3_NtCsfe3fH1fQhFR_12barks_common11compressionNtB5_18CompressionBuilderNtNtCs54tgE0qq4eT_4core7default7Default7default
FN:276,_RNvXs6_NtCsfe3fH1fQhFR_12barks_common11compressionNtB5_14ZstdCompressorNtB5_10Compressor10decompress
FN:300,_RNvXs6_NtCsfe3fH1fQhFR_12barks_common11compressionNtB5_14ZstdCompressorNtB5_10Compressor11reset_stats
FN:292,_RNvXs6_NtCsfe3fH1fQhFR_12barks_common11compressionNtB5_14ZstdCompressorNtB5_10Compressor5stats
FN:264,_RNvXs6_NtCsfe3fH1fQhFR_12barks_common11compressionNtB5_14ZstdCompressorNtB5_10Compressor8compress
FN:288,_RNvXs6_NtCsfe3fH1fQhFR_12barks_common11compressionNtB5_14ZstdCompressorNtB5_10Compressor9algorithm
FN:336,_RNvXs8_NtCsfe3fH1fQhFR_12barks_common11compressionNtB5_13Lz4CompressorNtB5_10Compressor10decompress
FN:360,_RNvXs8_NtCsfe3fH1fQhFR_12barks_common11compressionNtB5_13Lz4CompressorNtB5_10Compressor11reset_stats
FN:352,_RNvXs8_NtCsfe3fH1fQhFR_12barks_common11compressionNtB5_13Lz4CompressorNtB5_10Compressor5stats
FN:326,_RNvXs8_NtCsfe3fH1fQhFR_12barks_common11compressionNtB5_13Lz4CompressorNtB5_10Compressor8compress
FN:348,_RNvXs8_NtCsfe3fH1fQhFR_12barks_common11compressionNtB5_13Lz4CompressorNtB5_10Compressor9algorithm
FN:405,_RNvXsa_NtCsfe3fH1fQhFR_12barks_common11compressionNtB5_16SnappyCompressorNtB5_10Compressor10decompress
FN:432,_RNvXsa_NtCsfe3fH1fQhFR_12barks_common11compressionNtB5_16SnappyCompressorNtB5_10Compressor11reset_stats
FN:424,_RNvXsa_NtCsfe3fH1fQhFR_12barks_common11compressionNtB5_16SnappyCompressorNtB5_10Compressor5stats
FN:386,_RNvXsa_NtCsfe3fH1fQhFR_12barks_common11compressionNtB5_16SnappyCompressorNtB5_10Compressor8compress
FN:420,_RNvXsa_NtCsfe3fH1fQhFR_12barks_common11compressionNtB5_16SnappyCompressorNtB5_10Compressor9algorithm
FNDA:0,_RNCNvXs6_NtCsfe3fH1fQhFR_12barks_common11compressionNtB7_14ZstdCompressorNtB7_10Compressor10decompress0B9_
FNDA:0,_RNCNvXs6_NtCsfe3fH1fQhFR_12barks_common11compressionNtB7_14ZstdCompressorNtB7_10Compressor8compress0B9_
FNDA:0,_RNCNvXs8_NtCsfe3fH1fQhFR_12barks_common11compressionNtB7_13Lz4CompressorNtB7_10Compressor10decompress0B9_
FNDA:0,_RNCNvXsa_NtCsfe3fH1fQhFR_12barks_common11compressionNtB7_16SnappyCompressorNtB7_10Compressor10decompress0B9_
FNDA:0,_RNCNvXsa_NtCsfe3fH1fQhFR_12barks_common11compressionNtB7_16SnappyCompressorNtB7_10Compressor8compress0B9_
FNDA:0,_RNCNvXsa_NtCsfe3fH1fQhFR_12barks_common11compressionNtB7_16SnappyCompressorNtB7_10Compressor8compresss_0B9_
FNDA:0,_RNvMNtCsfe3fH1fQhFR_12barks_common11compressionNtB2_20CompressionAlgorithm13default_level
FNDA:0,_RNvMNtCsfe3fH1fQhFR_12barks_common11compressionNtB2_20CompressionAlgorithm15supports_levels
FNDA:0,_RNvMs0_NtCsfe3fH1fQhFR_12barks_common11compressionNtB5_17CompressionConfig10with_level
FNDA:0,_RNvMs0_NtCsfe3fH1fQhFR_12barks_common11compressionNtB5_17CompressionConfig19with_stats_tracking
FNDA:0,_RNvMs0_NtCsfe3fH1fQhFR_12barks_common11compressionNtB5_17CompressionConfig3new
FNDA:0,_RNvMs2_NtCsfe3fH1fQhFR_12barks_common11compressionNtB5_18CompressionBuilder11track_stats
FNDA:0,_RNvMs2_NtCsfe3fH1fQhFR_12barks_common11compressionNtB5_18CompressionBuilder14with_algorithm
FNDA:0,_RNvMs2_NtCsfe3fH1fQhFR_12barks_common11compressionNtB5_18CompressionBuilder3new
FNDA:0,_RNvMs2_NtCsfe3fH1fQhFR_12barks_common11compressionNtB5_18CompressionBuilder5build
FNDA:0,_RNvMs2_NtCsfe3fH1fQhFR_12barks_common11compressionNtB5_18CompressionBuilder5level
FNDA:0,_RNvMs4_NtCsfe3fH1fQhFR_12barks_common11compressionNtB5_24InternalCompressionStats18record_compression
FNDA:0,_RNvMs4_NtCsfe3fH1fQhFR_12barks_common11compressionNtB5_24InternalCompressionStats20record_decompression
FNDA:0,_RNvMs4_NtCsfe3fH1fQhFR_12barks_common11compressionNtB5_24InternalCompressionStats5reset
FNDA:0,_RNvMs4_NtCsfe3fH1fQhFR_12barks_common11compressionNtB5_24InternalCompressionStats9get_stats
FNDA:0,_RNvMs5_NtCsfe3fH1fQhFR_12barks_common11compressionNtB5_14ZstdCompressor3new
FNDA:0,_RNvMs7_NtCsfe3fH1fQhFR_12barks_common11compressionNtB5_13Lz4Compressor3new
FNDA:0,_RNvMs9_NtCsfe3fH1fQhFR_12barks_common11compressionNtB5_16SnappyCompressor3new
FNDA:0,_RNvMs_NtCsfe3fH1fQhFR_12barks_common11compressionNtB4_16CompressionStats13space_savings
FNDA:0,_RNvMs_NtCsfe3fH1fQhFR_12barks_common11compressionNtB4_16CompressionStats17compression_ratio
FNDA:0,_RNvXs1_NtCsfe3fH1fQhFR_12barks_common11compressionNtB5_17CompressionConfigNtNtCs54tgE0qq4eT_4core7default7Default7default
FNDA:0,_RNvXs3_NtCsfe3fH1fQhFR_12barks_common11compressionNtB5_18CompressionBuilderNtNtCs54tgE0qq4eT_4core7default7Default7default
FNDA:0,_RNvXs6_NtCsfe3fH1fQhFR_12barks_common11compressionNtB5_14ZstdCompressorNtB5_10Compressor10decompress
FNDA:0,_RNvXs6_NtCsfe3fH1fQhFR_12barks_common11compressionNtB5_14ZstdCompressorNtB5_10Compressor11reset_stats
FNDA:0,_RNvXs6_NtCsfe3fH1fQhFR_12barks_common11compressionNtB5_14ZstdCompressorNtB5_10Compressor5stats
FNDA:0,_RNvXs6_NtCsfe3fH1fQhFR_12barks_common11compressionNtB5_14ZstdCompressorNtB5_10Compressor8compress
FNDA:0,_RNvXs6_NtCsfe3fH1fQhFR_12barks_common11compressionNtB5_14ZstdCompressorNtB5_10Compressor9algorithm
FNDA:0,_RNvXs8_NtCsfe3fH1fQhFR_12barks_common11compressionNtB5_13Lz4CompressorNtB5_10Compressor10decompress
FNDA:0,_RNvXs8_NtCsfe3fH1fQhFR_12barks_common11compressionNtB5_13Lz4CompressorNtB5_10Compressor11reset_stats
FNDA:0,_RNvXs8_NtCsfe3fH1fQhFR_12barks_common11compressionNtB5_13Lz4CompressorNtB5_10Compressor5stats
FNDA:0,_RNvXs8_NtCsfe3fH1fQhFR_12barks_common11compressionNtB5_13Lz4CompressorNtB5_10Compressor8compress
FNDA:0,_RNvXs8_NtCsfe3fH1fQhFR_12barks_common11compressionNtB5_13Lz4CompressorNtB5_10Compressor9algorithm
FNDA:0,_RNvXsa_NtCsfe3fH1fQhFR_12barks_common11compressionNtB5_16SnappyCompressorNtB5_10Compressor10decompress
FNDA:0,_RNvXsa_NtCsfe3fH1fQhFR_12barks_common11compressionNtB5_16SnappyCompressorNtB5_10Compressor11reset_stats
FNDA:0,_RNvXsa_NtCsfe3fH1fQhFR_12barks_common11compressionNtB5_16SnappyCompressorNtB5_10Compressor5stats
FNDA:0,_RNvXsa_NtCsfe3fH1fQhFR_12barks_common11compressionNtB5_16SnappyCompressorNtB5_10Compressor8compress
FNDA:0,_RNvXsa_NtCsfe3fH1fQhFR_12barks_common11compressionNtB5_16SnappyCompressorNtB5_10Compressor9algorithm
FNF:42
FNH:0
DA:25,0
DA:26,0
DA:27,0
DA:28,0
DA:29,0
DA:31,0
DA:34,0
DA:35,0
DA:36,0
DA:72,0
DA:73,0
DA:74,0
DA:76,0
DA:78,0
DA:81,0
DA:82,0
DA:83,0
DA:84,0
DA:86,0
DA:88,0
DA:104,0
DA:105,0
DA:106,0
DA:107,0
DA:108,0
DA:109,0
DA:110,0
DA:113,0
DA:114,0
DA:115,0
DA:116,0
DA:119,0
DA:120,0
DA:121,0
DA:122,0
DA:126,0
DA:127,0
DA:128,0
DA:138,0
DA:139,0
DA:140,0
DA:141,0
DA:142,0
DA:145,0
DA:146,0
DA:147,0
DA:148,0
DA:149,0
DA:152,0
DA:153,0
DA:154,0
DA:155,0
DA:158,0
DA:159,0
DA:160,0
DA:161,0
DA:164,0
DA:165,0
DA:167,0
DA:168,0
DA:171,0
DA:172,0
DA:175,0
DA:176,0
DA:179,0
DA:183,0
DA:184,0
DA:185,0
DA:199,0
DA:200,0
DA:201,0
DA:202,0
DA:203,0
DA:204,0
DA:205,0
DA:207,0
DA:208,0
DA:209,0
DA:210,0
DA:211,0
DA:213,0
DA:214,0
DA:215,0
DA:216,0
DA:217,0
DA:218,0
DA:219,0
DA:221,0
DA:222,0
DA:223,0
DA:224,0
DA:225,0
DA:226,0
DA:227,0
DA:228,0
DA:229,0
DA:240,0
DA:241,0
DA:242,0
DA:243,0
DA:244,0
DA:245,0
DA:246,0
DA:247,0
DA:248,0
DA:249,0
DA:250,0
DA:251,0
DA:253,0
DA:254,0
DA:256,0
DA:259,0
DA:260,0
DA:264,0
DA:265,0
DA:266,0
DA:267,0
DA:269,0
DA:270,0
DA:271,0
DA:273,0
DA:274,0
DA:276,0
DA:277,0
DA:278,0
DA:279,0
DA:281,0
DA:282,0
DA:283,0
DA:285,0
DA:286,0
DA:288,0
DA:289,0
DA:290,0
DA:292,0
DA:293,0
DA:294,0
DA:296,0
DA:298,0
DA:300,0
DA:301,0
DA:302,0
DA:303,0
DA:304,0
DA:314,0
DA:315,0
DA:316,0
DA:318,0
DA:321,0
DA:322,0
DA:326,0
DA:327,0
DA:329,0
DA:330,0
DA:331,0
DA:333,0
DA:334,0
DA:336,0
DA:337,0
DA:338,0
DA:339,0
DA:341,0
DA:342,0
DA:343,0
DA:345,0
DA:346,0
DA:348,0
DA:349,0
DA:350,0
DA:352,0
DA:353,0
DA:354,0
DA:356,0
DA:358,0
DA:360,0
DA:361,0
DA:362,0
DA:363,0
DA:364,0
DA:374,0
DA:375,0
DA:376,0
DA:378,0
DA:381,0
DA:382,0
DA:386,0
DA:387,0
DA:388,0
DA:389,0
DA:390,0
DA:391,0
DA:392,0
DA:394,0
DA:395,0
DA:396,0
DA:398,0
DA:399,0
DA:400,0
DA:402,0
DA:403,0
DA:405,0
DA:406,0
DA:407,0
DA:408,0
DA:409,0
DA:410,0
DA:411,0
DA:413,0
DA:414,0
DA:415,0
DA:417,0
DA:418,0
DA:420,0
DA:421,0
DA:422,0
DA:424,0
DA:425,0
DA:426,0
DA:428,0
DA:430,0
DA:432,0
DA:433,0
DA:434,0
DA:435,0
DA:436,0
BRF:0
BRH:0
LF:237
LH:0
end_of_record
SF:/home/lonless/rust-projects/barks/common/src/error.rs
FN:432,_RINvMNtCsfe3fH1fQhFR_12barks_common5errorNtB3_11CommonError7invalidNtNtCs48R0vjQGLEQ_5alloc6string6StringECsleJ6uViwJwk_10barks_core
FN:185,_RINvMNtCsfe3fH1fQhFR_12barks_common5errorNtB3_11CommonError13storage_errorNtNtCs48R0vjQGLEQ_5alloc6string6StringEB5_
FN:280,_RINvMNtCsfe3fH1fQhFR_12barks_common5errorNtB3_11CommonError17compression_errorNtNtCs48R0vjQGLEQ_5alloc6string6StringEB5_
FN:242,_RINvMNtCsfe3fH1fQhFR_12barks_common5errorNtB3_11CommonError19configuration_errorNtNtCs48R0vjQGLEQ_5alloc6string6StringEB5_
FN:299,_RINvMNtCsfe3fH1fQhFR_12barks_common5errorNtB3_11CommonError19decompression_errorNtNtCs48R0vjQGLEQ_5alloc6string6StringEB5_
FN:269,_RINvMNtCsfe3fH1fQhFR_12barks_common5errorNtB3_11CommonError20io_error_with_sourceReNtCs5MFb40H5G40_6anyhow5ErrorEB5_
FN:174,_RINvMNtCsfe3fH1fQhFR_12barks_common5errorNtB3_11CommonError23cache_error_with_sourceReNtCs5MFb40H5G40_6anyhow5ErrorEB5_
FN:326,_RINvMNtCsfe3fH1fQhFR_12barks_common5errorNtB3_11CommonError25network_error_with_sourceReNtCs5MFb40H5G40_6anyhow5ErrorEB5_
FN:193,_RINvMNtCsfe3fH1fQhFR_12barks_common5errorNtB3_11CommonError25storage_error_with_sourceReNtCs5MFb40H5G40_6anyhow5ErrorEB5_
FN:345,_RINvMNtCsfe3fH1fQhFR_12barks_common5errorNtB3_11CommonError25timeout_error_with_sourceReNtCs5MFb40H5G40_6anyhow5ErrorEB5_
FN:421,_RINvMNtCsfe3fH1fQhFR_12barks_common5errorNtB3_11CommonError26internal_error_with_sourceReNtCs5MFb40H5G40_6anyhow5ErrorEB5_
FN:364,_RINvMNtCsfe3fH1fQhFR_12barks_common5errorNtB3_11CommonError27not_found_error_with_sourceReNtCs5MFb40H5G40_6anyhow5ErrorEB5_
FN:383,_RINvMNtCsfe3fH1fQhFR_12barks_common5errorNtB3_11CommonError28permission_error_with_sourceReNtCs5MFb40H5G40_6anyhow5ErrorEB5_
FN:288,_RINvMNtCsfe3fH1fQhFR_12barks_common5errorNtB3_11CommonError29compression_error_with_sourceReNtCs5MFb40H5G40_6anyhow5ErrorEB5_
FN:250,_RINvMNtCsfe3fH1fQhFR_12barks_common5errorNtB3_11CommonError31configuration_error_with_sourceReNtCs5MFb40H5G40_6anyhow5ErrorEB5_
FN:307,_RINvMNtCsfe3fH1fQhFR_12barks_common5errorNtB3_11CommonError31decompression_error_with_sourceReNtCs5MFb40H5G40_6anyhow5ErrorEB5_
FN:212,_RINvMNtCsfe3fH1fQhFR_12barks_common5errorNtB3_11CommonError31serialization_error_with_sourceReNtCs5MFb40H5G40_6anyhow5ErrorEB5_
FN:231,_RINvMNtCsfe3fH1fQhFR_12barks_common5errorNtB3_11CommonError33deserialization_error_with_sourceReNtCs5MFb40H5G40_6anyhow5ErrorEB5_
FN:402,_RINvMNtCsfe3fH1fQhFR_12barks_common5errorNtB3_11CommonError36resource_exhausted_error_with_sourceReNtCs5MFb40H5G40_6anyhow5ErrorEB5_
FN:166,_RINvMNtCsfe3fH1fQhFR_12barks_common5errorNtB3_11CommonError11cache_errorpEB5_
FN:318,_RINvMNtCsfe3fH1fQhFR_12barks_common5errorNtB3_11CommonError13network_errorpEB5_
FN:337,_RINvMNtCsfe3fH1fQhFR_12barks_common5errorNtB3_11CommonError13timeout_errorpEB5_
FN:413,_RINvMNtCsfe3fH1fQhFR_12barks_common5errorNtB3_11CommonError14internal_errorpEB5_
FN:356,_RINvMNtCsfe3fH1fQhFR_12barks_common5errorNtB3_11CommonError15not_found_errorpEB5_
FN:375,_RINvMNtCsfe3fH1fQhFR_12barks_common5errorNtB3_11CommonError16permission_errorpEB5_
FN:204,_RINvMNtCsfe3fH1fQhFR_12barks_common5errorNtB3_11CommonError19serialization_errorpEB5_
FN:223,_RINvMNtCsfe3fH1fQhFR_12barks_common5errorNtB3_11CommonError21deserialization_errorpEB5_
FN:394,_RINvMNtCsfe3fH1fQhFR_12barks_common5errorNtB3_11CommonError24resource_exhausted_errorpEB5_
FN:432,_RINvMNtCsfe3fH1fQhFR_12barks_common5errorNtB3_11CommonError7invalidpEB5_
FN:261,_RINvMNtCsfe3fH1fQhFR_12barks_common5errorNtB3_11CommonError8io_errorpEB5_
FN:744,_RINvNtNtCsfe3fH1fQhFR_12barks_common5error10conversion18from_anyhow_resultpEB6_
FN:785,_RINvXININtNtCsfe3fH1fQhFR_12barks_common5error7context0ppEINtNtCs54tgE0qq4eT_4core6result6ResultppEINtB6_12ErrorContextpE12with_contextpEBa_
FN:815,_RINvXININtNtCsfe3fH1fQhFR_12barks_common5error7context0ppEINtNtCs54tgE0qq4eT_4core6result6ResultppEINtB6_12ErrorContextpE15with_io_contextpEBa_
FN:795,_RINvXININtNtCsfe3fH1fQhFR_12barks_common5error7context0ppEINtNtCs54tgE0qq4eT_4core6result6ResultppEINtB6_12ErrorContextpE18with_cache_contextpEBa_
FN:825,_RINvXININtNtCsfe3fH1fQhFR_12barks_common5error7context0ppEINtNtCs54tgE0qq4eT_4core6result6ResultppEINtB6_12ErrorContextpE20with_network_contextpEBa_
FN:805,_RINvXININtNtCsfe3fH1fQhFR_12barks_common5error7context0ppEINtNtCs54tgE0qq4eT_4core6result6ResultppEINtB6_12ErrorContextpE20with_storage_contextpEBa_
FN:789,_RNCINvXININtNtCsfe3fH1fQhFR_12barks_common5error7context0ppEINtNtCs54tgE0qq4eT_4core6result6ResultppEINtB8_12ErrorContextpE12with_contextpE0Bc_
FN:819,_RNCINvXININtNtCsfe3fH1fQhFR_12barks_common5error7context0ppEINtNtCs54tgE0qq4eT_4core6result6ResultppEINtB8_12ErrorContextpE15with_io_contextpE0Bc_
FN:799,_RNCINvXININtNtCsfe3fH1fQhFR_12barks_common5error7context0ppEINtNtCs54tgE0qq4eT_4core6result6ResultppEINtB8_12ErrorContextpE18with_cache_contextpE0Bc_
FN:829,_RNCINvXININtNtCsfe3fH1fQhFR_12barks_common5error7context0ppEINtNtCs54tgE0qq4eT_4core6result6ResultppEINtB8_12ErrorContextpE20with_network_contextpE0Bc_
FN:809,_RNCINvXININtNtCsfe3fH1fQhFR_12barks_common5error7context0ppEINtNtCs54tgE0qq4eT_4core6result6ResultppEINtB8_12ErrorContextpE20with_storage_contextpE0Bc_
FNDA:10,_RINvMNtCsfe3fH1fQhFR_12barks_common5errorNtB3_11CommonError7invalidNtNtCs48R0vjQGLEQ_5alloc6string6StringECsleJ6uViwJwk_10barks_core
FNDA:0,_RINvMNtCsfe3fH1fQhFR_12barks_common5errorNtB3_11CommonError13storage_errorNtNtCs48R0vjQGLEQ_5alloc6string6StringEB5_
FNDA:0,_RINvMNtCsfe3fH1fQhFR_12barks_common5errorNtB3_11CommonError17compression_errorNtNtCs48R0vjQGLEQ_5alloc6string6StringEB5_
FNDA:0,_RINvMNtCsfe3fH1fQhFR_12barks_common5errorNtB3_11CommonError19configuration_errorNtNtCs48R0vjQGLEQ_5alloc6string6StringEB5_
FNDA:0,_RINvMNtCsfe3fH1fQhFR_12barks_common5errorNtB3_11CommonError19decompression_errorNtNtCs48R0vjQGLEQ_5alloc6string6StringEB5_
FNDA:0,_RINvMNtCsfe3fH1fQhFR_12barks_common5errorNtB3_11CommonError20io_error_with_sourceReNtCs5MFb40H5G40_6anyhow5ErrorEB5_
FNDA:0,_RINvMNtCsfe3fH1fQhFR_12barks_common5errorNtB3_11CommonError23cache_error_with_sourceReNtCs5MFb40H5G40_6anyhow5ErrorEB5_
FNDA:0,_RINvMNtCsfe3fH1fQhFR_12barks_common5errorNtB3_11CommonError25network_error_with_sourceReNtCs5MFb40H5G40_6anyhow5ErrorEB5_
FNDA:0,_RINvMNtCsfe3fH1fQhFR_12barks_common5errorNtB3_11CommonError25storage_error_with_sourceReNtCs5MFb40H5G40_6anyhow5ErrorEB5_
FNDA:0,_RINvMNtCsfe3fH1fQhFR_12barks_common5errorNtB3_11CommonError25timeout_error_with_sourceReNtCs5MFb40H5G40_6anyhow5ErrorEB5_
FNDA:0,_RINvMNtCsfe3fH1fQhFR_12barks_common5errorNtB3_11CommonError26internal_error_with_sourceReNtCs5MFb40H5G40_6anyhow5ErrorEB5_
FNDA:0,_RINvMNtCsfe3fH1fQhFR_12barks_common5errorNtB3_11CommonError27not_found_error_with_sourceReNtCs5MFb40H5G40_6anyhow5ErrorEB5_
FNDA:0,_RINvMNtCsfe3fH1fQhFR_12barks_common5errorNtB3_11CommonError28permission_error_with_sourceReNtCs5MFb40H5G40_6anyhow5ErrorEB5_
FNDA:0,_RINvMNtCsfe3fH1fQhFR_12barks_common5errorNtB3_11CommonError29compression_error_with_sourceReNtCs5MFb40H5G40_6anyhow5ErrorEB5_
FNDA:0,_RINvMNtCsfe3fH1fQhFR_12barks_common5errorNtB3_11CommonError31configuration_error_with_sourceReNtCs5MFb40H5G40_6anyhow5ErrorEB5_
FNDA:0,_RINvMNtCsfe3fH1fQhFR_12barks_common5errorNtB3_11CommonError31decompression_error_with_sourceReNtCs5MFb40H5G40_6anyhow5ErrorEB5_
FNDA:0,_RINvMNtCsfe3fH1fQhFR_12barks_common5errorNtB3_11CommonError31serialization_error_with_sourceReNtCs5MFb40H5G40_6anyhow5ErrorEB5_
FNDA:0,_RINvMNtCsfe3fH1fQhFR_12barks_common5errorNtB3_11CommonError33deserialization_error_with_sourceReNtCs5MFb40H5G40_6anyhow5ErrorEB5_
FNDA:0,_RINvMNtCsfe3fH1fQhFR_12barks_common5errorNtB3_11CommonError36resource_exhausted_error_with_sourceReNtCs5MFb40H5G40_6anyhow5ErrorEB5_
FNDA:0,_RINvMNtCsfe3fH1fQhFR_12barks_common5errorNtB3_11CommonError11cache_errorpEB5_
FNDA:0,_RINvMNtCsfe3fH1fQhFR_12barks_common5errorNtB3_11CommonError13network_errorpEB5_
FNDA:0,_RINvMNtCsfe3fH1fQhFR_12barks_common5errorNtB3_11CommonError13timeout_errorpEB5_
FNDA:0,_RINvMNtCsfe3fH1fQhFR_12barks_common5errorNtB3_11CommonError14internal_errorpEB5_
FNDA:0,_RINvMNtCsfe3fH1fQhFR_12barks_common5errorNtB3_11CommonError15not_found_errorpEB5_
FNDA:0,_RINvMNtCsfe3fH1fQhFR_12barks_common5errorNtB3_11CommonError16permission_errorpEB5_
FNDA:0,_RINvMNtCsfe3fH1fQhFR_12barks_common5errorNtB3_11CommonError19serialization_errorpEB5_
FNDA:0,_RINvMNtCsfe3fH1fQhFR_12barks_common5errorNtB3_11CommonError21deserialization_errorpEB5_
FNDA:0,_RINvMNtCsfe3fH1fQhFR_12barks_common5errorNtB3_11CommonError24resource_exhausted_errorpEB5_
FNDA:0,_RINvMNtCsfe3fH1fQhFR_12barks_common5errorNtB3_11CommonError7invalidpEB5_
FNDA:0,_RINvMNtCsfe3fH1fQhFR_12barks_common5errorNtB3_11CommonError8io_errorpEB5_
FNDA:0,_RINvNtNtCsfe3fH1fQhFR_12barks_common5error10conversion18from_anyhow_resultpEB6_
FNDA:0,_RINvXININtNtCsfe3fH1fQhFR_12barks_common5error7context0ppEINtNtCs54tgE0qq4eT_4core6result6ResultppEINtB6_12ErrorContextpE12with_contextpEBa_
FNDA:0,_RINvXININtNtCsfe3fH1fQhFR_12barks_common5error7context0ppEINtNtCs54tgE0qq4eT_4core6result6ResultppEINtB6_12ErrorContextpE15with_io_contextpEBa_
FNDA:0,_RINvXININtNtCsfe3fH1fQhFR_12barks_common5error7context0ppEINtNtCs54tgE0qq4eT_4core6result6ResultppEINtB6_12ErrorContextpE18with_cache_contextpEBa_
FNDA:0,_RINvXININtNtCsfe3fH1fQhFR_12barks_common5error7context0ppEINtNtCs54tgE0qq4eT_4core6result6ResultppEINtB6_12ErrorContextpE20with_network_contextpEBa_
FNDA:0,_RINvXININtNtCsfe3fH1fQhFR_12barks_common5error7context0ppEINtNtCs54tgE0qq4eT_4core6result6ResultppEINtB6_12ErrorContextpE20with_storage_contextpEBa_
FNDA:0,_RNCINvXININtNtCsfe3fH1fQhFR_12barks_common5error7context0ppEINtNtCs54tgE0qq4eT_4core6result6ResultppEINtB8_12ErrorContextpE12with_contextpE0Bc_
FNDA:0,_RNCINvXININtNtCsfe3fH1fQhFR_12barks_common5error7context0ppEINtNtCs54tgE0qq4eT_4core6result6ResultppEINtB8_12ErrorContextpE15with_io_contextpE0Bc_
FNDA:0,_RNCINvXININtNtCsfe3fH1fQhFR_12barks_common5error7context0ppEINtNtCs54tgE0qq4eT_4core6result6ResultppEINtB8_12ErrorContextpE18with_cache_contextpE0Bc_
FNDA:0,_RNCINvXININtNtCsfe3fH1fQhFR_12barks_common5error7context0ppEINtNtCs54tgE0qq4eT_4core6result6ResultppEINtB8_12ErrorContextpE20with_network_contextpE0Bc_
FNDA:0,_RNCINvXININtNtCsfe3fH1fQhFR_12barks_common5error7context0ppEINtNtCs54tgE0qq4eT_4core6result6ResultppEINtB8_12ErrorContextpE20with_storage_contextpE0Bc_
FNF:40
FNH:1
DA:166,0
DA:167,0
DA:168,0
DA:169,0
DA:170,0
DA:171,0
DA:174,0
DA:175,0
DA:176,0
DA:177,0
DA:178,0
DA:179,0
DA:180,0
DA:181,0
DA:182,0
DA:185,0
DA:186,0
DA:187,0
DA:188,0
DA:189,0
DA:190,0
DA:193,0
DA:194,0
DA:195,0
DA:196,0
DA:197,0
DA:198,0
DA:199,0
DA:200,0
DA:201,0
DA:204,0
DA:205,0
DA:206,0
DA:207,0
DA:208,0
DA:209,0
DA:212,0
DA:213,0
DA:214,0
DA:215,0
DA:216,0
DA:217,0
DA:218,0
DA:219,0
DA:220,0
DA:223,0
DA:224,0
DA:225,0
DA:226,0
DA:227,0
DA:228,0
DA:231,0
DA:232,0
DA:233,0
DA:234,0
DA:235,0
DA:236,0
DA:237,0
DA:238,0
DA:239,0
DA:242,0
DA:243,0
DA:244,0
DA:245,0
DA:246,0
DA:247,0
DA:250,0
DA:251,0
DA:252,0
DA:253,0
DA:254,0
DA:255,0
DA:256,0
DA:257,0
DA:258,0
DA:261,0
DA:262,0
DA:263,0
DA:264,0
DA:265,0
DA:266,0
DA:269,0
DA:270,0
DA:271,0
DA:272,0
DA:273,0
DA:274,0
DA:275,0
DA:276,0
DA:277,0
DA:280,0
DA:281,0
DA:282,0
DA:283,0
DA:284,0
DA:285,0
DA:288,0
DA:289,0
DA:290,0
DA:291,0
DA:292,0
DA:293,0
DA:294,0
DA:295,0
DA:296,0
DA:299,0
DA:300,0
DA:301,0
DA:302,0
DA:303,0
DA:304,0
DA:307,0
DA:308,0
DA:309,0
DA:310,0
DA:311,0
DA:312,0
DA:313,0
DA:314,0
DA:315,0
DA:318,0
DA:319,0
DA:320,0
DA:321,0
DA:322,0
DA:323,0
DA:326,0
DA:327,0
DA:328,0
DA:329,0
DA:330,0
DA:331,0
DA:332,0
DA:333,0
DA:334,0
DA:337,0
DA:338,0
DA:339,0
DA:340,0
DA:341,0
DA:342,0
DA:345,0
DA:346,0
DA:347,0
DA:348,0
DA:349,0
DA:350,0
DA:351,0
DA:352,0
DA:353,0
DA:356,0
DA:357,0
DA:358,0
DA:359,0
DA:360,0
DA:361,0
DA:364,0
DA:365,0
DA:366,0
DA:367,0
DA:368,0
DA:369,0
DA:370,0
DA:371,0
DA:372,0
DA:375,0
DA:376,0
DA:377,0
DA:378,0
DA:379,0
DA:380,0
DA:383,0
DA:384,0
DA:385,0
DA:386,0
DA:387,0
DA:388,0
DA:389,0
DA:390,0
DA:391,0
DA:394,0
DA:395,0
DA:396,0
DA:397,0
DA:398,0
DA:399,0
DA:402,0
DA:403,0
DA:404,0
DA:405,0
DA:406,0
DA:407,0
DA:408,0
DA:409,0
DA:410,0
DA:413,0
DA:414,0
DA:415,0
DA:416,0
DA:417,0
DA:418,0
DA:421,0
DA:422,0
DA:423,0
DA:424,0
DA:425,0
DA:426,0
DA:427,0
DA:428,0
DA:429,0
DA:432,10
DA:433,10
DA:434,10
DA:435,10
DA:436,10
DA:437,10
DA:744,0
DA:745,0
DA:746,0
DA:785,0
DA:786,0
DA:787,0
DA:788,0
DA:789,0
DA:790,0
DA:791,0
DA:792,0
DA:793,0
DA:795,0
DA:796,0
DA:797,0
DA:798,0
DA:799,0
DA:800,0
DA:801,0
DA:802,0
DA:803,0
DA:805,0
DA:806,0
DA:807,0
DA:808,0
DA:809,0
DA:810,0
DA:811,0
DA:812,0
DA:813,0
DA:815,0
DA:816,0
DA:817,0
DA:818,0
DA:819,0
DA:820,0
DA:821,0
DA:822,0
DA:823,0
DA:825,0
DA:826,0
DA:827,0
DA:828,0
DA:829,0
DA:830,0
DA:831,0
DA:832,0
DA:833,0
BRF:0
BRH:0
LF:274
LH:6
end_of_record
SF:/home/lonless/rust-projects/barks/common/src/storage.rs
FN:294,_RINvMs3_NtCsfe3fH1fQhFR_12barks_common7storageNtB6_14RocksDbStorage16execute_blockingNCNCNvXse_B6_BI_NtB6_7Storage11batch_write00uEB8_
FN:294,_RINvMs3_NtCsfe3fH1fQhFR_12barks_common7storageNtB6_14RocksDbStorage16execute_blockingNCNCNvXse_B6_BI_NtB6_7Storage11scan_prefix00INtNtCs48R0vjQGLEQ_5alloc3vec3VecTIB24_hEB2B_EEEB8_
FN:294,_RINvMs3_NtCsfe3fH1fQhFR_12barks_common7storageNtB6_14RocksDbStorage16execute_blockingNCNCNvXse_B6_BI_NtB6_7Storage12contains_key00bEB8_
FN:294,_RINvMs3_NtCsfe3fH1fQhFR_12barks_common7storageNtB6_14RocksDbStorage16execute_blockingNCNCNvXse_B6_BI_NtB6_7Storage16keys_with_prefix00INtNtCs48R0vjQGLEQ_5alloc3vec3VecIB29_hEEEB8_
FN:294,_RINvMs3_NtCsfe3fH1fQhFR_12barks_common7storageNtB6_14RocksDbStorage16execute_blockingNCNCNvXse_B6_BI_NtB6_7Storage3get00INtNtCs54tgE0qq4eT_4core6option6OptionINtNtCs48R0vjQGLEQ_5alloc3vec3VechEEEB8_
FN:294,_RINvMs3_NtCsfe3fH1fQhFR_12barks_common7storageNtB6_14RocksDbStorage16execute_blockingNCNCNvXse_B6_BI_NtB6_7Storage3put00uEB8_
FN:294,_RINvMs3_NtCsfe3fH1fQhFR_12barks_common7storageNtB6_14RocksDbStorage16execute_blockingNCNCNvXse_B6_BI_NtB6_7Storage5flush00uEB8_
FN:294,_RINvMs3_NtCsfe3fH1fQhFR_12barks_common7storageNtB6_14RocksDbStorage16execute_blockingNCNCNvXse_B6_BI_NtB6_7Storage5stats00TyyEEB8_
FN:294,_RINvMs3_NtCsfe3fH1fQhFR_12barks_common7storageNtB6_14RocksDbStorage16execute_blockingNCNCNvXse_B6_BI_NtB6_7Storage6delete00uEB8_
FN:294,_RINvMs3_NtCsfe3fH1fQhFR_12barks_common7storageNtB6_14RocksDbStorage16execute_blockingNCNCNvXse_B6_BI_NtB6_7Storage7compact00uEB8_
FN:298,_RNCINvMs3_NtCsfe3fH1fQhFR_12barks_common7storageNtB8_14RocksDbStorage16execute_blockingNCNCNvXse_B8_BK_NtB8_7Storage11batch_write00uE0Ba_
FN:298,_RNCINvMs3_NtCsfe3fH1fQhFR_12barks_common7storageNtB8_14RocksDbStorage16execute_blockingNCNCNvXse_B8_BK_NtB8_7Storage11scan_prefix00INtNtCs48R0vjQGLEQ_5alloc3vec3VecTIB26_hEB2D_EEE0Ba_
FN:298,_RNCINvMs3_NtCsfe3fH1fQhFR_12barks_common7storageNtB8_14RocksDbStorage16execute_blockingNCNCNvXse_B8_BK_NtB8_7Storage12contains_key00bE0Ba_
FN:298,_RNCINvMs3_NtCsfe3fH1fQhFR_12barks_common7storageNtB8_14RocksDbStorage16execute_blockingNCNCNvXse_B8_BK_NtB8_7Storage16keys_with_prefix00INtNtCs48R0vjQGLEQ_5alloc3vec3VecIB2b_hEEE0Ba_
FN:298,_RNCINvMs3_NtCsfe3fH1fQhFR_12barks_common7storageNtB8_14RocksDbStorage16execute_blockingNCNCNvXse_B8_BK_NtB8_7Storage3get00INtNtCs54tgE0qq4eT_4core6option6OptionINtNtCs48R0vjQGLEQ_5alloc3vec3VechEEE0Ba_
FN:298,_RNCINvMs3_NtCsfe3fH1fQhFR_12barks_common7storageNtB8_14RocksDbStorage16execute_blockingNCNCNvXse_B8_BK_NtB8_7Storage3put00uE0Ba_
FN:298,_RNCINvMs3_NtCsfe3fH1fQhFR_12barks_common7storageNtB8_14RocksDbStorage16execute_blockingNCNCNvXse_B8_BK_NtB8_7Storage5flush00uE0Ba_
FN:298,_RNCINvMs3_NtCsfe3fH1fQhFR_12barks_common7storageNtB8_14RocksDbStorage16execute_blockingNCNCNvXse_B8_BK_NtB8_7Storage5stats00TyyEE0Ba_
FN:298,_RNCINvMs3_NtCsfe3fH1fQhFR_12barks_common7storageNtB8_14RocksDbStorage16execute_blockingNCNCNvXse_B8_BK_NtB8_7Storage6delete00uE0Ba_
FN:298,_RNCINvMs3_NtCsfe3fH1fQhFR_12barks_common7storageNtB8_14RocksDbStorage16execute_blockingNCNCNvXse_B8_BK_NtB8_7Storage7compact00uE0Ba_
FN:300,_RNCNCINvMs3_NtCsfe3fH1fQhFR_12barks_common7storageNtBa_14RocksDbStorage16execute_blockingNCNCNvXse_Ba_BM_NtBa_7Storage11batch_write00uE00Bc_
FN:303,_RNCNCINvMs3_NtCsfe3fH1fQhFR_12barks_common7storageNtBa_14RocksDbStorage16execute_blockingNCNCNvXse_Ba_BM_NtBa_7Storage11batch_write00uE0s0_0Bc_
FN:302,_RNCNCINvMs3_NtCsfe3fH1fQhFR_12barks_common7storageNtBa_14RocksDbStorage16execute_blockingNCNCNvXse_Ba_BM_NtBa_7Storage11batch_write00uE0s_0Bc_
FN:300,_RNCNCINvMs3_NtCsfe3fH1fQhFR_12barks_common7storageNtBa_14RocksDbStorage16execute_blockingNCNCNvXse_Ba_BM_NtBa_7Storage11scan_prefix00INtNtCs48R0vjQGLEQ_5alloc3vec3VecTIB28_hEB2F_EEE00Bc_
FN:303,_RNCNCINvMs3_NtCsfe3fH1fQhFR_12barks_common7storageNtBa_14RocksDbStorage16execute_blockingNCNCNvXse_Ba_BM_NtBa_7Storage11scan_prefix00INtNtCs48R0vjQGLEQ_5alloc3vec3VecTIB28_hEB2F_EEE0s0_0Bc_
FN:302,_RNCNCINvMs3_NtCsfe3fH1fQhFR_12barks_common7storageNtBa_14RocksDbStorage16execute_blockingNCNCNvXse_Ba_BM_NtBa_7Storage11scan_prefix00INtNtCs48R0vjQGLEQ_5alloc3vec3VecTIB28_hEB2F_EEE0s_0Bc_
FN:300,_RNCNCINvMs3_NtCsfe3fH1fQhFR_12barks_common7storageNtBa_14RocksDbStorage16execute_blockingNCNCNvXse_Ba_BM_NtBa_7Storage12contains_key00bE00Bc_
FN:303,_RNCNCINvMs3_NtCsfe3fH1fQhFR_12barks_common7storageNtBa_14RocksDbStorage16execute_blockingNCNCNvXse_Ba_BM_NtBa_7Storage12contains_key00bE0s0_0Bc_
FN:302,_RNCNCINvMs3_NtCsfe3fH1fQhFR_12barks_common7storageNtBa_14RocksDbStorage16execute_blockingNCNCNvXse_Ba_BM_NtBa_7Storage12contains_key00bE0s_0Bc_
FN:300,_RNCNCINvMs3_NtCsfe3fH1fQhFR_12barks_common7storageNtBa_14RocksDbStorage16execute_blockingNCNCNvXse_Ba_BM_NtBa_7Storage16keys_with_prefix00INtNtCs48R0vjQGLEQ_5alloc3vec3VecIB2d_hEEE00Bc_
FN:303,_RNCNCINvMs3_NtCsfe3fH1fQhFR_12barks_common7storageNtBa_14RocksDbStorage16execute_blockingNCNCNvXse_Ba_BM_NtBa_7Storage16keys_with_prefix00INtNtCs48R0vjQGLEQ_5alloc3vec3VecIB2d_hEEE0s0_0Bc_
FN:302,_RNCNCINvMs3_NtCsfe3fH1fQhFR_12barks_common7storageNtBa_14RocksDbStorage16execute_blockingNCNCNvXse_Ba_BM_NtBa_7Storage16keys_with_prefix00INtNtCs48R0vjQGLEQ_5alloc3vec3VecIB2d_hEEE0s_0Bc_
FN:300,_RNCNCINvMs3_NtCsfe3fH1fQhFR_12barks_common7storageNtBa_14RocksDbStorage16execute_blockingNCNCNvXse_Ba_BM_NtBa_7Storage3get00INtNtCs54tgE0qq4eT_4core6option6OptionINtNtCs48R0vjQGLEQ_5alloc3vec3VechEEE00Bc_
FN:303,_RNCNCINvMs3_NtCsfe3fH1fQhFR_12barks_common7storageNtBa_14RocksDbStorage16execute_blockingNCNCNvXse_Ba_BM_NtBa_7Storage3get00INtNtCs54tgE0qq4eT_4core6option6OptionINtNtCs48R0vjQGLEQ_5alloc3vec3VechEEE0s0_0Bc_
FN:302,_RNCNCINvMs3_NtCsfe3fH1fQhFR_12barks_common7storageNtBa_14RocksDbStorage16execute_blockingNCNCNvXse_Ba_BM_NtBa_7Storage3get00INtNtCs54tgE0qq4eT_4core6option6OptionINtNtCs48R0vjQGLEQ_5alloc3vec3VechEEE0s_0Bc_
FN:300,_RNCNCINvMs3_NtCsfe3fH1fQhFR_12barks_common7storageNtBa_14RocksDbStorage16execute_blockingNCNCNvXse_Ba_BM_NtBa_7Storage3put00uE00Bc_
FN:303,_RNCNCINvMs3_NtCsfe3fH1fQhFR_12barks_common7storageNtBa_14RocksDbStorage16execute_blockingNCNCNvXse_Ba_BM_NtBa_7Storage3put00uE0s0_0Bc_
FN:302,_RNCNCINvMs3_NtCsfe3fH1fQhFR_12barks_common7storageNtBa_14RocksDbStorage16execute_blockingNCNCNvXse_Ba_BM_NtBa_7Storage3put00uE0s_0Bc_
FN:300,_RNCNCINvMs3_NtCsfe3fH1fQhFR_12barks_common7storageNtBa_14RocksDbStorage16execute_blockingNCNCNvXse_Ba_BM_NtBa_7Storage5flush00uE00Bc_
FN:303,_RNCNCINvMs3_NtCsfe3fH1fQhFR_12barks_common7storageNtBa_14RocksDbStorage16execute_blockingNCNCNvXse_Ba_BM_NtBa_7Storage5flush00uE0s0_0Bc_
FN:302,_RNCNCINvMs3_NtCsfe3fH1fQhFR_12barks_common7storageNtBa_14RocksDbStorage16execute_blockingNCNCNvXse_Ba_BM_NtBa_7Storage5flush00uE0s_0Bc_
FN:300,_RNCNCINvMs3_NtCsfe3fH1fQhFR_12barks_common7storageNtBa_14RocksDbStorage16execute_blockingNCNCNvXse_Ba_BM_NtBa_7Storage5stats00TyyEE00Bc_
FN:303,_RNCNCINvMs3_NtCsfe3fH1fQhFR_12barks_common7storageNtBa_14RocksDbStorage16execute_blockingNCNCNvXse_Ba_BM_NtBa_7Storage5stats00TyyEE0s0_0Bc_
FN:302,_RNCNCINvMs3_NtCsfe3fH1fQhFR_12barks_common7storageNtBa_14RocksDbStorage16execute_blockingNCNCNvXse_Ba_BM_NtBa_7Storage5stats00TyyEE0s_0Bc_
FN:300,_RNCNCINvMs3_NtCsfe3fH1fQhFR_12barks_common7storageNtBa_14RocksDbStorage16execute_blockingNCNCNvXse_Ba_BM_NtBa_7Storage6delete00uE00Bc_
FN:303,_RNCNCINvMs3_NtCsfe3fH1fQhFR_12barks_common7storageNtBa_14RocksDbStorage16execute_blockingNCNCNvXse_Ba_BM_NtBa_7Storage6delete00uE0s0_0Bc_
FN:302,_RNCNCINvMs3_NtCsfe3fH1fQhFR_12barks_common7storageNtBa_14RocksDbStorage16execute_blockingNCNCNvXse_Ba_BM_NtBa_7Storage6delete00uE0s_0Bc_
FN:300,_RNCNCINvMs3_NtCsfe3fH1fQhFR_12barks_common7storageNtBa_14RocksDbStorage16execute_blockingNCNCNvXse_Ba_BM_NtBa_7Storage7compact00uE00Bc_
FN:303,_RNCNCINvMs3_NtCsfe3fH1fQhFR_12barks_common7storageNtBa_14RocksDbStorage16execute_blockingNCNCNvXse_Ba_BM_NtBa_7Storage7compact00uE0s0_0Bc_
FN:302,_RNCNCINvMs3_NtCsfe3fH1fQhFR_12barks_common7storageNtBa_14RocksDbStorage16execute_blockingNCNCNvXse_Ba_BM_NtBa_7Storage7compact00uE0s_0Bc_
FN:374,_RNCNCNCNvXse_NtCsfe3fH1fQhFR_12barks_common7storageNtBb_14RocksDbStorageNtBb_7Storage12contains_key000Bd_
FN:534,_RNCNCNCNvXse_NtCsfe3fH1fQhFR_12barks_common7storageNtBb_14RocksDbStorageNtBb_7Storage5stats000Bd_
FN:540,_RNCNCNCNvXse_NtCsfe3fH1fQhFR_12barks_common7storageNtBb_14RocksDbStorageNtBb_7Storage5stats00s_0Bd_
FN:464,_RNCNCNvXse_NtCsfe3fH1fQhFR_12barks_common7storageNtB9_14RocksDbStorageNtB9_7Storage11batch_write00Bb_
FN:430,_RNCNCNvXse_NtCsfe3fH1fQhFR_12barks_common7storageNtB9_14RocksDbStorageNtB9_7Storage11scan_prefix00Bb_
FN:374,_RNCNCNvXse_NtCsfe3fH1fQhFR_12barks_common7storageNtB9_14RocksDbStorageNtB9_7Storage12contains_key00Bb_
FN:394,_RNCNCNvXse_NtCsfe3fH1fQhFR_12barks_common7storageNtB9_14RocksDbStorageNtB9_7Storage16keys_with_prefix00Bb_
FN:313,_RNCNCNvXse_NtCsfe3fH1fQhFR_12barks_common7storageNtB9_14RocksDbStorageNtB9_7Storage3get00Bb_
FN:334,_RNCNCNvXse_NtCsfe3fH1fQhFR_12barks_common7storageNtB9_14RocksDbStorageNtB9_7Storage3put00Bb_
FN:494,_RNCNCNvXse_NtCsfe3fH1fQhFR_12barks_common7storageNtB9_14RocksDbStorageNtB9_7Storage5flush00Bb_
FN:530,_RNCNCNvXse_NtCsfe3fH1fQhFR_12barks_common7storageNtB9_14RocksDbStorageNtB9_7Storage5stats00Bb_
FN:354,_RNCNCNvXse_NtCsfe3fH1fQhFR_12barks_common7storageNtB9_14RocksDbStorageNtB9_7Storage6delete00Bb_
FN:512,_RNCNCNvXse_NtCsfe3fH1fQhFR_12barks_common7storageNtB9_14RocksDbStorageNtB9_7Storage7compact00Bb_
FN:462,_RNCNvXse_NtCsfe3fH1fQhFR_12barks_common7storageNtB7_14RocksDbStorageNtB7_7Storage11batch_write0B9_
FN:426,_RNCNvXse_NtCsfe3fH1fQhFR_12barks_common7storageNtB7_14RocksDbStorageNtB7_7Storage11scan_prefix0B9_
FN:370,_RNCNvXse_NtCsfe3fH1fQhFR_12barks_common7storageNtB7_14RocksDbStorageNtB7_7Storage12contains_key0B9_
FN:390,_RNCNvXse_NtCsfe3fH1fQhFR_12barks_common7storageNtB7_14RocksDbStorageNtB7_7Storage16keys_with_prefix0B9_
FN:309,_RNCNvXse_NtCsfe3fH1fQhFR_12barks_common7storageNtB7_14RocksDbStorageNtB7_7Storage3get0B9_
FN:329,_RNCNvXse_NtCsfe3fH1fQhFR_12barks_common7storageNtB7_14RocksDbStorageNtB7_7Storage3put0B9_
FN:551,_RNCNvXse_NtCsfe3fH1fQhFR_12barks_common7storageNtB7_14RocksDbStorageNtB7_7Storage5close0B9_
FN:492,_RNCNvXse_NtCsfe3fH1fQhFR_12barks_common7storageNtB7_14RocksDbStorageNtB7_7Storage5flush0B9_
FN:527,_RNCNvXse_NtCsfe3fH1fQhFR_12barks_common7storageNtB7_14RocksDbStorageNtB7_7Storage5stats0B9_
FN:350,_RNCNvXse_NtCsfe3fH1fQhFR_12barks_common7storageNtB7_14RocksDbStorageNtB7_7Storage6delete0B9_
FN:510,_RNCNvXse_NtCsfe3fH1fQhFR_12barks_common7storageNtB7_14RocksDbStorageNtB7_7Storage7compact0B9_
FN:88,_RNvMNtCsfe3fH1fQhFR_12barks_common7storageNtB2_12StorageStats10error_rate
FN:75,_RNvMNtCsfe3fH1fQhFR_12barks_common7storageNtB2_12StorageStats16read_write_ratio
FN:175,_RNvMs0_NtCsfe3fH1fQhFR_12barks_common7storageNtB5_14StorageBuilder11compression
FN:181,_RNvMs0_NtCsfe3fH1fQhFR_12barks_common7storageNtB5_14StorageBuilder11sync_writes
FN:157,_RNvMs0_NtCsfe3fH1fQhFR_12barks_common7storageNtB5_14StorageBuilder14max_open_files
FN:169,_RNvMs0_NtCsfe3fH1fQhFR_12barks_common7storageNtB5_14StorageBuilder16block_cache_size
FN:151,_RNvMs0_NtCsfe3fH1fQhFR_12barks_common7storageNtB5_14StorageBuilder17create_if_missing
FN:163,_RNvMs0_NtCsfe3fH1fQhFR_12barks_common7storageNtB5_14StorageBuilder17write_buffer_size
FN:138,_RNvMs0_NtCsfe3fH1fQhFR_12barks_common7storageNtB5_14StorageBuilder3new
FN:187,_RNvMs0_NtCsfe3fH1fQhFR_12barks_common7storageNtB5_14StorageBuilder5build
FN:210,_RNvMs2_NtCsfe3fH1fQhFR_12barks_common7storageNtB5_20InternalStorageStats11record_read
FN:222,_RNvMs2_NtCsfe3fH1fQhFR_12barks_common7storageNtB5_20InternalStorageStats12record_batch
FN:226,_RNvMs2_NtCsfe3fH1fQhFR_12barks_common7storageNtB5_20InternalStorageStats12record_error
FN:214,_RNvMs2_NtCsfe3fH1fQhFR_12barks_common7storageNtB5_20InternalStorageStats12record_write
FN:218,_RNvMs2_NtCsfe3fH1fQhFR_12barks_common7storageNtB5_20InternalStorageStats13record_delete
FN:230,_RNvMs2_NtCsfe3fH1fQhFR_12barks_common7storageNtB5_20InternalStorageStats9get_stats
FN:251,_RNvMs3_NtCsfe3fH1fQhFR_12barks_common7storageNtB5_14RocksDbStorage3new
FN:194,_RNvXs1_NtCsfe3fH1fQhFR_12barks_common7storageNtB5_14StorageBuilderNtNtCs54tgE0qq4eT_4core7default7Default7default
FN:118,_RNvXs_NtCsfe3fH1fQhFR_12barks_common7storageNtB4_13StorageConfigNtNtCs54tgE0qq4eT_4core7default7Default7default
FN:490,_RNvXse_NtCsfe3fH1fQhFR_12barks_common7storageNtB5_14RocksDbStorageNtB5_7Storage11batch_write
FN:460,_RNvXse_NtCsfe3fH1fQhFR_12barks_common7storageNtB5_14RocksDbStorageNtB5_7Storage11scan_prefix
FN:388,_RNvXse_NtCsfe3fH1fQhFR_12barks_common7storageNtB5_14RocksDbStorageNtB5_7Storage12contains_key
FN:424,_RNvXse_NtCsfe3fH1fQhFR_12barks_common7storageNtB5_14RocksDbStorageNtB5_7Storage16keys_with_prefix
FN:327,_RNvXse_NtCsfe3fH1fQhFR_12barks_common7storageNtB5_14RocksDbStorageNtB5_7Storage3get
FN:348,_RNvXse_NtCsfe3fH1fQhFR_12barks_common7storageNtB5_14RocksDbStorageNtB5_7Storage3put
FN:555,_RNvXse_NtCsfe3fH1fQhFR_12barks_common7storageNtB5_14RocksDbStorageNtB5_7Storage5close
FN:508,_RNvXse_NtCsfe3fH1fQhFR_12barks_common7storageNtB5_14RocksDbStorageNtB5_7Storage5flush
FN:549,_RNvXse_NtCsfe3fH1fQhFR_12barks_common7storageNtB5_14RocksDbStorageNtB5_7Storage5stats
FN:368,_RNvXse_NtCsfe3fH1fQhFR_12barks_common7storageNtB5_14RocksDbStorageNtB5_7Storage6delete
FN:525,_RNvXse_NtCsfe3fH1fQhFR_12barks_common7storageNtB5_14RocksDbStorageNtB5_7Storage7compact
FN:145,_RINvMs0_NtCsfe3fH1fQhFR_12barks_common7storageNtB6_14StorageBuilder4pathpEB8_
FN:281,_RNCNCNvMs3_NtCsfe3fH1fQhFR_12barks_common7storageNtB9_14RocksDbStorage3new00Bb_
FN:286,_RNCNCNvMs3_NtCsfe3fH1fQhFR_12barks_common7storageNtB9_14RocksDbStorage3new0s0_0Bb_
FN:283,_RNCNCNvMs3_NtCsfe3fH1fQhFR_12barks_common7storageNtB9_14RocksDbStorage3new0s_0Bb_
FN:187,_RNCNvMs0_NtCsfe3fH1fQhFR_12barks_common7storageNtB7_14StorageBuilder5build0B9_
FN:251,_RNCNvMs3_NtCsfe3fH1fQhFR_12barks_common7storageNtB7_14RocksDbStorage3new0B9_
FNDA:0,_RINvMs3_NtCsfe3fH1fQhFR_12barks_common7storageNtB6_14RocksDbStorage16execute_blockingNCNCNvXse_B6_BI_NtB6_7Storage11batch_write00uEB8_
FNDA:0,_RINvMs3_NtCsfe3fH1fQhFR_12barks_common7storageNtB6_14RocksDbStorage16execute_blockingNCNCNvXse_B6_BI_NtB6_7Storage11scan_prefix00INtNtCs48R0vjQGLEQ_5alloc3vec3VecTIB24_hEB2B_EEEB8_
FNDA:0,_RINvMs3_NtCsfe3fH1fQhFR_12barks_common7storageNtB6_14RocksDbStorage16execute_blockingNCNCNvXse_B6_BI_NtB6_7Storage12contains_key00bEB8_
FNDA:0,_RINvMs3_NtCsfe3fH1fQhFR_12barks_common7storageNtB6_14RocksDbStorage16execute_blockingNCNCNvXse_B6_BI_NtB6_7Storage16keys_with_prefix00INtNtCs48R0vjQGLEQ_5alloc3vec3VecIB29_hEEEB8_
FNDA:0,_RINvMs3_NtCsfe3fH1fQhFR_12barks_common7storageNtB6_14RocksDbStorage16execute_blockingNCNCNvXse_B6_BI_NtB6_7Storage3get00INtNtCs54tgE0qq4eT_4core6option6OptionINtNtCs48R0vjQGLEQ_5alloc3vec3VechEEEB8_
FNDA:0,_RINvMs3_NtCsfe3fH1fQhFR_12barks_common7storageNtB6_14RocksDbStorage16execute_blockingNCNCNvXse_B6_BI_NtB6_7Storage3put00uEB8_
FNDA:0,_RINvMs3_NtCsfe3fH1fQhFR_12barks_common7storageNtB6_14RocksDbStorage16execute_blockingNCNCNvXse_B6_BI_NtB6_7Storage5flush00uEB8_
FNDA:0,_RINvMs3_NtCsfe3fH1fQhFR_12barks_common7storageNtB6_14RocksDbStorage16execute_blockingNCNCNvXse_B6_BI_NtB6_7Storage5stats00TyyEEB8_
FNDA:0,_RINvMs3_NtCsfe3fH1fQhFR_12barks_common7storageNtB6_14RocksDbStorage16execute_blockingNCNCNvXse_B6_BI_NtB6_7Storage6delete00uEB8_
FNDA:0,_RINvMs3_NtCsfe3fH1fQhFR_12barks_common7storageNtB6_14RocksDbStorage16execute_blockingNCNCNvXse_B6_BI_NtB6_7Storage7compact00uEB8_
FNDA:0,_RNCINvMs3_NtCsfe3fH1fQhFR_12barks_common7storageNtB8_14RocksDbStorage16execute_blockingNCNCNvXse_B8_BK_NtB8_7Storage11batch_write00uE0Ba_
FNDA:0,_RNCINvMs3_NtCsfe3fH1fQhFR_12barks_common7storageNtB8_14RocksDbStorage16execute_blockingNCNCNvXse_B8_BK_NtB8_7Storage11scan_prefix00INtNtCs48R0vjQGLEQ_5alloc3vec3VecTIB26_hEB2D_EEE0Ba_
FNDA:0,_RNCINvMs3_NtCsfe3fH1fQhFR_12barks_common7storageNtB8_14RocksDbStorage16execute_blockingNCNCNvXse_B8_BK_NtB8_7Storage12contains_key00bE0Ba_
FNDA:0,_RNCINvMs3_NtCsfe3fH1fQhFR_12barks_common7storageNtB8_14RocksDbStorage16execute_blockingNCNCNvXse_B8_BK_NtB8_7Storage16keys_with_prefix00INtNtCs48R0vjQGLEQ_5alloc3vec3VecIB2b_hEEE0Ba_
FNDA:0,_RNCINvMs3_NtCsfe3fH1fQhFR_12barks_common7storageNtB8_14RocksDbStorage16execute_blockingNCNCNvXse_B8_BK_NtB8_7Storage3get00INtNtCs54tgE0qq4eT_4core6option6OptionINtNtCs48R0vjQGLEQ_5alloc3vec3VechEEE0Ba_
FNDA:0,_RNCINvMs3_NtCsfe3fH1fQhFR_12barks_common7storageNtB8_14RocksDbStorage16execute_blockingNCNCNvXse_B8_BK_NtB8_7Storage3put00uE0Ba_
FNDA:0,_RNCINvMs3_NtCsfe3fH1fQhFR_12barks_common7storageNtB8_14RocksDbStorage16execute_blockingNCNCNvXse_B8_BK_NtB8_7Storage5flush00uE0Ba_
FNDA:0,_RNCINvMs3_NtCsfe3fH1fQhFR_12barks_common7storageNtB8_14RocksDbStorage16execute_blockingNCNCNvXse_B8_BK_NtB8_7Storage5stats00TyyEE0Ba_
FNDA:0,_RNCINvMs3_NtCsfe3fH1fQhFR_12barks_common7storageNtB8_14RocksDbStorage16execute_blockingNCNCNvXse_B8_BK_NtB8_7Storage6delete00uE0Ba_
FNDA:0,_RNCINvMs3_NtCsfe3fH1fQhFR_12barks_common7storageNtB8_14RocksDbStorage16execute_blockingNCNCNvXse_B8_BK_NtB8_7Storage7compact00uE0Ba_
FNDA:0,_RNCNCINvMs3_NtCsfe3fH1fQhFR_12barks_common7storageNtBa_14RocksDbStorage16execute_blockingNCNCNvXse_Ba_BM_NtBa_7Storage11batch_write00uE00Bc_
FNDA:0,_RNCNCINvMs3_NtCsfe3fH1fQhFR_12barks_common7storageNtBa_14RocksDbStorage16execute_blockingNCNCNvXse_Ba_BM_NtBa_7Storage11batch_write00uE0s0_0Bc_
FNDA:0,_RNCNCINvMs3_NtCsfe3fH1fQhFR_12barks_common7storageNtBa_14RocksDbStorage16execute_blockingNCNCNvXse_Ba_BM_NtBa_7Storage11batch_write00uE0s_0Bc_
FNDA:0,_RNCNCINvMs3_NtCsfe3fH1fQhFR_12barks_common7storageNtBa_14RocksDbStorage16execute_blockingNCNCNvXse_Ba_BM_NtBa_7Storage11scan_prefix00INtNtCs48R0vjQGLEQ_5alloc3vec3VecTIB28_hEB2F_EEE00Bc_
FNDA:0,_RNCNCINvMs3_NtCsfe3fH1fQhFR_12barks_common7storageNtBa_14RocksDbStorage16execute_blockingNCNCNvXse_Ba_BM_NtBa_7Storage11scan_prefix00INtNtCs48R0vjQGLEQ_5alloc3vec3VecTIB28_hEB2F_EEE0s0_0Bc_
FNDA:0,_RNCNCINvMs3_NtCsfe3fH1fQhFR_12barks_common7storageNtBa_14RocksDbStorage16execute_blockingNCNCNvXse_Ba_BM_NtBa_7Storage11scan_prefix00INtNtCs48R0vjQGLEQ_5alloc3vec3VecTIB28_hEB2F_EEE0s_0Bc_
FNDA:0,_RNCNCINvMs3_NtCsfe3fH1fQhFR_12barks_common7storageNtBa_14RocksDbStorage16execute_blockingNCNCNvXse_Ba_BM_NtBa_7Storage12contains_key00bE00Bc_
FNDA:0,_RNCNCINvMs3_NtCsfe3fH1fQhFR_12barks_common7storageNtBa_14RocksDbStorage16execute_blockingNCNCNvXse_Ba_BM_NtBa_7Storage12contains_key00bE0s0_0Bc_
FNDA:0,_RNCNCINvMs3_NtCsfe3fH1fQhFR_12barks_common7storageNtBa_14RocksDbStorage16execute_blockingNCNCNvXse_Ba_BM_NtBa_7Storage12contains_key00bE0s_0Bc_
FNDA:0,_RNCNCINvMs3_NtCsfe3fH1fQhFR_12barks_common7storageNtBa_14RocksDbStorage16execute_blockingNCNCNvXse_Ba_BM_NtBa_7Storage16keys_with_prefix00INtNtCs48R0vjQGLEQ_5alloc3vec3VecIB2d_hEEE00Bc_
FNDA:0,_RNCNCINvMs3_NtCsfe3fH1fQhFR_12barks_common7storageNtBa_14RocksDbStorage16execute_blockingNCNCNvXse_Ba_BM_NtBa_7Storage16keys_with_prefix00INtNtCs48R0vjQGLEQ_5alloc3vec3VecIB2d_hEEE0s0_0Bc_
FNDA:0,_RNCNCINvMs3_NtCsfe3fH1fQhFR_12barks_common7storageNtBa_14RocksDbStorage16execute_blockingNCNCNvXse_Ba_BM_NtBa_7Storage16keys_with_prefix00INtNtCs48R0vjQGLEQ_5alloc3vec3VecIB2d_hEEE0s_0Bc_
FNDA:0,_RNCNCINvMs3_NtCsfe3fH1fQhFR_12barks_common7storageNtBa_14RocksDbStorage16execute_blockingNCNCNvXse_Ba_BM_NtBa_7Storage3get00INtNtCs54tgE0qq4eT_4core6option6OptionINtNtCs48R0vjQGLEQ_5alloc3vec3VechEEE00Bc_
FNDA:0,_RNCNCINvMs3_NtCsfe3fH1fQhFR_12barks_common7storageNtBa_14RocksDbStorage16execute_blockingNCNCNvXse_Ba_BM_NtBa_7Storage3get00INtNtCs54tgE0qq4eT_4core6option6OptionINtNtCs48R0vjQGLEQ_5alloc3vec3VechEEE0s0_0Bc_
FNDA:0,_RNCNCINvMs3_NtCsfe3fH1fQhFR_12barks_common7storageNtBa_14RocksDbStorage16execute_blockingNCNCNvXse_Ba_BM_NtBa_7Storage3get00INtNtCs54tgE0qq4eT_4core6option6OptionINtNtCs48R0vjQGLEQ_5alloc3vec3VechEEE0s_0Bc_
FNDA:0,_RNCNCINvMs3_NtCsfe3fH1fQhFR_12barks_common7storageNtBa_14RocksDbStorage16execute_blockingNCNCNvXse_Ba_BM_NtBa_7Storage3put00uE00Bc_
FNDA:0,_RNCNCINvMs3_NtCsfe3fH1fQhFR_12barks_common7storageNtBa_14RocksDbStorage16execute_blockingNCNCNvXse_Ba_BM_NtBa_7Storage3put00uE0s0_0Bc_
FNDA:0,_RNCNCINvMs3_NtCsfe3fH1fQhFR_12barks_common7storageNtBa_14RocksDbStorage16execute_blockingNCNCNvXse_Ba_BM_NtBa_7Storage3put00uE0s_0Bc_
FNDA:0,_RNCNCINvMs3_NtCsfe3fH1fQhFR_12barks_common7storageNtBa_14RocksDbStorage16execute_blockingNCNCNvXse_Ba_BM_NtBa_7Storage5flush00uE00Bc_
FNDA:0,_RNCNCINvMs3_NtCsfe3fH1fQhFR_12barks_common7storageNtBa_14RocksDbStorage16execute_blockingNCNCNvXse_Ba_BM_NtBa_7Storage5flush00uE0s0_0Bc_
FNDA:0,_RNCNCINvMs3_NtCsfe3fH1fQhFR_12barks_common7storageNtBa_14RocksDbStorage16execute_blockingNCNCNvXse_Ba_BM_NtBa_7Storage5flush00uE0s_0Bc_
FNDA:0,_RNCNCINvMs3_NtCsfe3fH1fQhFR_12barks_common7storageNtBa_14RocksDbStorage16execute_blockingNCNCNvXse_Ba_BM_NtBa_7Storage5stats00TyyEE00Bc_
FNDA:0,_RNCNCINvMs3_NtCsfe3fH1fQhFR_12barks_common7storageNtBa_14RocksDbStorage16execute_blockingNCNCNvXse_Ba_BM_NtBa_7Storage5stats00TyyEE0s0_0Bc_
FNDA:0,_RNCNCINvMs3_NtCsfe3fH1fQhFR_12barks_common7storageNtBa_14RocksDbStorage16execute_blockingNCNCNvXse_Ba_BM_NtBa_7Storage5stats00TyyEE0s_0Bc_
FNDA:0,_RNCNCINvMs3_NtCsfe3fH1fQhFR_12barks_common7storageNtBa_14RocksDbStorage16execute_blockingNCNCNvXse_Ba_BM_NtBa_7Storage6delete00uE00Bc_
FNDA:0,_RNCNCINvMs3_NtCsfe3fH1fQhFR_12barks_common7storageNtBa_14RocksDbStorage16execute_blockingNCNCNvXse_Ba_BM_NtBa_7Storage6delete00uE0s0_0Bc_
FNDA:0,_RNCNCINvMs3_NtCsfe3fH1fQhFR_12barks_common7storageNtBa_14RocksDbStorage16execute_blockingNCNCNvXse_Ba_BM_NtBa_7Storage6delete00uE0s_0Bc_
FNDA:0,_RNCNCINvMs3_NtCsfe3fH1fQhFR_12barks_common7storageNtBa_14RocksDbStorage16execute_blockingNCNCNvXse_Ba_BM_NtBa_7Storage7compact00uE00Bc_
FNDA:0,_RNCNCINvMs3_NtCsfe3fH1fQhFR_12barks_common7storageNtBa_14RocksDbStorage16execute_blockingNCNCNvXse_Ba_BM_NtBa_7Storage7compact00uE0s0_0Bc_
FNDA:0,_RNCNCINvMs3_NtCsfe3fH1fQhFR_12barks_common7storageNtBa_14RocksDbStorage16execute_blockingNCNCNvXse_Ba_BM_NtBa_7Storage7compact00uE0s_0Bc_
FNDA:0,_RNCNCNCNvXse_NtCsfe3fH1fQhFR_12barks_common7storageNtBb_14RocksDbStorageNtBb_7Storage12contains_key000Bd_
FNDA:0,_RNCNCNCNvXse_NtCsfe3fH1fQhFR_12barks_common7storageNtBb_14RocksDbStorageNtBb_7Storage5stats000Bd_
FNDA:0,_RNCNCNCNvXse_NtCsfe3fH1fQhFR_12barks_common7storageNtBb_14RocksDbStorageNtBb_7Storage5stats00s_0Bd_
FNDA:0,_RNCNCNvXse_NtCsfe3fH1fQhFR_12barks_common7storageNtB9_14RocksDbStorageNtB9_7Storage11batch_write00Bb_
FNDA:0,_RNCNCNvXse_NtCsfe3fH1fQhFR_12barks_common7storageNtB9_14RocksDbStorageNtB9_7Storage11scan_prefix00Bb_
FNDA:0,_RNCNCNvXse_NtCsfe3fH1fQhFR_12barks_common7storageNtB9_14RocksDbStorageNtB9_7Storage12contains_key00Bb_
FNDA:0,_RNCNCNvXse_NtCsfe3fH1fQhFR_12barks_common7storageNtB9_14RocksDbStorageNtB9_7Storage16keys_with_prefix00Bb_
FNDA:0,_RNCNCNvXse_NtCsfe3fH1fQhFR_12barks_common7storageNtB9_14RocksDbStorageNtB9_7Storage3get00Bb_
FNDA:0,_RNCNCNvXse_NtCsfe3fH1fQhFR_12barks_common7storageNtB9_14RocksDbStorageNtB9_7Storage3put00Bb_
FNDA:0,_RNCNCNvXse_NtCsfe3fH1fQhFR_12barks_common7storageNtB9_14RocksDbStorageNtB9_7Storage5flush00Bb_
FNDA:0,_RNCNCNvXse_NtCsfe3fH1fQhFR_12barks_common7storageNtB9_14RocksDbStorageNtB9_7Storage5stats00Bb_
FNDA:0,_RNCNCNvXse_NtCsfe3fH1fQhFR_12barks_common7storageNtB9_14RocksDbStorageNtB9_7Storage6delete00Bb_
FNDA:0,_RNCNCNvXse_NtCsfe3fH1fQhFR_12barks_common7storageNtB9_14RocksDbStorageNtB9_7Storage7compact00Bb_
FNDA:0,_RNCNvXse_NtCsfe3fH1fQhFR_12barks_common7storageNtB7_14RocksDbStorageNtB7_7Storage11batch_write0B9_
FNDA:0,_RNCNvXse_NtCsfe3fH1fQhFR_12barks_common7storageNtB7_14RocksDbStorageNtB7_7Storage11scan_prefix0B9_
FNDA:0,_RNCNvXse_NtCsfe3fH1fQhFR_12barks_common7storageNtB7_14RocksDbStorageNtB7_7Storage12contains_key0B9_
FNDA:0,_RNCNvXse_NtCsfe3fH1fQhFR_12barks_common7storageNtB7_14RocksDbStorageNtB7_7Storage16keys_with_prefix0B9_
FNDA:0,_RNCNvXse_NtCsfe3fH1fQhFR_12barks_common7storageNtB7_14RocksDbStorageNtB7_7Storage3get0B9_
FNDA:0,_RNCNvXse_NtCsfe3fH1fQhFR_12barks_common7storageNtB7_14RocksDbStorageNtB7_7Storage3put0B9_
FNDA:0,_RNCNvXse_NtCsfe3fH1fQhFR_12barks_common7storageNtB7_14RocksDbStorageNtB7_7Storage5close0B9_
FNDA:0,_RNCNvXse_NtCsfe3fH1fQhFR_12barks_common7storageNtB7_14RocksDbStorageNtB7_7Storage5flush0B9_
FNDA:0,_RNCNvXse_NtCsfe3fH1fQhFR_12barks_common7storageNtB7_14RocksDbStorageNtB7_7Storage5stats0B9_
FNDA:0,_RNCNvXse_NtCsfe3fH1fQhFR_12barks_common7storageNtB7_14RocksDbStorageNtB7_7Storage6delete0B9_
FNDA:0,_RNCNvXse_NtCsfe3fH1fQhFR_12barks_common7storageNtB7_14RocksDbStorageNtB7_7Storage7compact0B9_
FNDA:0,_RNvMNtCsfe3fH1fQhFR_12barks_common7storageNtB2_12StorageStats10error_rate
FNDA:0,_RNvMNtCsfe3fH1fQhFR_12barks_common7storageNtB2_12StorageStats16read_write_ratio
FNDA:0,_RNvMs0_NtCsfe3fH1fQhFR_12barks_common7storageNtB5_14StorageBuilder11compression
FNDA:0,_RNvMs0_NtCsfe3fH1fQhFR_12barks_common7storageNtB5_14StorageBuilder11sync_writes
FNDA:0,_RNvMs0_NtCsfe3fH1fQhFR_12barks_common7storageNtB5_14StorageBuilder14max_open_files
FNDA:0,_RNvMs0_NtCsfe3fH1fQhFR_12barks_common7storageNtB5_14StorageBuilder16block_cache_size
FNDA:0,_RNvMs0_NtCsfe3fH1fQhFR_12barks_common7storageNtB5_14StorageBuilder17create_if_missing
FNDA:0,_RNvMs0_NtCsfe3fH1fQhFR_12barks_common7storageNtB5_14StorageBuilder17write_buffer_size
FNDA:0,_RNvMs0_NtCsfe3fH1fQhFR_12barks_common7storageNtB5_14StorageBuilder3new
FNDA:0,_RNvMs0_NtCsfe3fH1fQhFR_12barks_common7storageNtB5_14StorageBuilder5build
FNDA:0,_RNvMs2_NtCsfe3fH1fQhFR_12barks_common7storageNtB5_20InternalStorageStats11record_read
FNDA:0,_RNvMs2_NtCsfe3fH1fQhFR_12barks_common7storageNtB5_20InternalStorageStats12record_batch
FNDA:0,_RNvMs2_NtCsfe3fH1fQhFR_12barks_common7storageNtB5_20InternalStorageStats12record_error
FNDA:0,_RNvMs2_NtCsfe3fH1fQhFR_12barks_common7storageNtB5_20InternalStorageStats12record_write
FNDA:0,_RNvMs2_NtCsfe3fH1fQhFR_12barks_common7storageNtB5_20InternalStorageStats13record_delete
FNDA:0,_RNvMs2_NtCsfe3fH1fQhFR_12barks_common7storageNtB5_20InternalStorageStats9get_stats
FNDA:0,_RNvMs3_NtCsfe3fH1fQhFR_12barks_common7storageNtB5_14RocksDbStorage3new
FNDA:0,_RNvXs1_NtCsfe3fH1fQhFR_12barks_common7storageNtB5_14StorageBuilderNtNtCs54tgE0qq4eT_4core7default7Default7default
FNDA:0,_RNvXs_NtCsfe3fH1fQhFR_12barks_common7storageNtB4_13StorageConfigNtNtCs54tgE0qq4eT_4core7default7Default7default
FNDA:0,_RNvXse_NtCsfe3fH1fQhFR_12barks_common7storageNtB5_14RocksDbStorageNtB5_7Storage11batch_write
FNDA:0,_RNvXse_NtCsfe3fH1fQhFR_12barks_common7storageNtB5_14RocksDbStorageNtB5_7Storage11scan_prefix
FNDA:0,_RNvXse_NtCsfe3fH1fQhFR_12barks_common7storageNtB5_14RocksDbStorageNtB5_7Storage12contains_key
FNDA:0,_RNvXse_NtCsfe3fH1fQhFR_12barks_common7storageNtB5_14RocksDbStorageNtB5_7Storage16keys_with_prefix
FNDA:0,_RNvXse_NtCsfe3fH1fQhFR_12barks_common7storageNtB5_14RocksDbStorageNtB5_7Storage3get
FNDA:0,_RNvXse_NtCsfe3fH1fQhFR_12barks_common7storageNtB5_14RocksDbStorageNtB5_7Storage3put
FNDA:0,_RNvXse_NtCsfe3fH1fQhFR_12barks_common7storageNtB5_14RocksDbStorageNtB5_7Storage5close
FNDA:0,_RNvXse_NtCsfe3fH1fQhFR_12barks_common7storageNtB5_14RocksDbStorageNtB5_7Storage5flush
FNDA:0,_RNvXse_NtCsfe3fH1fQhFR_12barks_common7storageNtB5_14RocksDbStorageNtB5_7Storage5stats
FNDA:0,_RNvXse_NtCsfe3fH1fQhFR_12barks_common7storageNtB5_14RocksDbStorageNtB5_7Storage6delete
FNDA:0,_RNvXse_NtCsfe3fH1fQhFR_12barks_common7storageNtB5_14RocksDbStorageNtB5_7Storage7compact
FNDA:0,_RINvMs0_NtCsfe3fH1fQhFR_12barks_common7storageNtB6_14StorageBuilder4pathpEB8_
FNDA:0,_RNCNCNvMs3_NtCsfe3fH1fQhFR_12barks_common7storageNtB9_14RocksDbStorage3new00Bb_
FNDA:0,_RNCNCNvMs3_NtCsfe3fH1fQhFR_12barks_common7storageNtB9_14RocksDbStorage3new0s0_0Bb_
FNDA:0,_RNCNCNvMs3_NtCsfe3fH1fQhFR_12barks_common7storageNtB9_14RocksDbStorage3new0s_0Bb_
FNDA:0,_RNCNvMs0_NtCsfe3fH1fQhFR_12barks_common7storageNtB7_14StorageBuilder5build0B9_
FNDA:0,_RNCNvMs3_NtCsfe3fH1fQhFR_12barks_common7storageNtB7_14RocksDbStorage3new0B9_
FNF:65
FNH:0
DA:75,0
DA:76,0
DA:77,0
DA:78,0
DA:80,0
DA:83,0
DA:85,0
DA:88,0
DA:89,0
DA:90,0
DA:91,0
DA:93,0
DA:95,0
DA:118,0
DA:119,0
DA:120,0
DA:121,0
DA:122,0
DA:123,0
DA:124,0
DA:125,0
DA:126,0
DA:127,0
DA:128,0
DA:138,0
DA:139,0
DA:140,0
DA:141,0
DA:142,0
DA:145,0
DA:146,0
DA:147,0
DA:148,0
DA:151,0
DA:152,0
DA:153,0
DA:154,0
DA:157,0
DA:158,0
DA:159,0
DA:160,0
DA:163,0
DA:164,0
DA:165,0
DA:166,0
DA:169,0
DA:170,0
DA:171,0
DA:172,0
DA:175,0
DA:176,0
DA:177,0
DA:178,0
DA:181,0
DA:182,0
DA:183,0
DA:184,0
DA:187,0
DA:188,0
DA:189,0
DA:190,0
DA:194,0
DA:195,0
DA:196,0
DA:210,0
DA:211,0
DA:212,0
DA:214,0
DA:215,0
DA:216,0
DA:218,0
DA:219,0
DA:220,0
DA:222,0
DA:223,0
DA:224,0
DA:226,0
DA:227,0
DA:228,0
DA:230,0
DA:231,0
DA:232,0
DA:233,0
DA:234,0
DA:235,0
DA:236,0
DA:237,0
DA:238,0
DA:239,0
DA:240,0
DA:251,0
DA:252,0
DA:253,0
DA:254,0
DA:255,0
DA:256,0
DA:258,0
DA:259,0
DA:260,0
DA:262,0
DA:263,0
DA:264,0
DA:266,0
DA:267,0
DA:268,0
DA:269,0
DA:270,0
DA:273,0
DA:274,0
DA:275,0
DA:276,0
DA:277,0
DA:278,0
DA:281,0
DA:282,0
DA:283,0
DA:284,0
DA:285,0
DA:286,0
DA:288,0
DA:289,0
DA:290,0
DA:291,0
DA:292,0
DA:294,0
DA:295,0
DA:296,0
DA:297,0
DA:298,0
DA:299,0
DA:300,0
DA:301,0
DA:302,0
DA:303,0
DA:304,0
DA:309,0
DA:310,0
DA:311,0
DA:312,0
DA:313,0
DA:314,0
DA:315,0
DA:317,0
DA:318,0
DA:319,0
DA:320,0
DA:322,0
DA:323,0
DA:324,0
DA:327,0
DA:329,0
DA:330,0
DA:331,0
DA:332,0
DA:333,0
DA:334,0
DA:335,0
DA:336,0
DA:338,0
DA:340,0
DA:341,0
DA:343,0
DA:344,0
DA:345,0
DA:348,0
DA:350,0
DA:351,0
DA:352,0
DA:353,0
DA:354,0
DA:355,0
DA:356,0
DA:358,0
DA:360,0
DA:361,0
DA:363,0
DA:364,0
DA:365,0
DA:368,0
DA:370,0
DA:371,0
DA:372,0
DA:373,0
DA:374,0
DA:375,0
DA:376,0
DA:378,0
DA:379,0
DA:380,0
DA:381,0
DA:383,0
DA:384,0
DA:385,0
DA:388,0
DA:390,0
DA:391,0
DA:392,0
DA:393,0
DA:394,0
DA:395,0
DA:396,0
DA:397,0
DA:398,0
DA:399,0
DA:400,0
DA:401,0
DA:402,0
DA:403,0
DA:406,0
DA:409,0
DA:410,0
DA:411,0
DA:412,0
DA:414,0
DA:415,0
DA:416,0
DA:417,0
DA:419,0
DA:420,0
DA:421,0
DA:424,0
DA:426,0
DA:427,0
DA:428,0
DA:429,0
DA:430,0
DA:431,0
DA:432,0
DA:433,0
DA:434,0
DA:435,0
DA:436,0
DA:437,0
DA:438,0
DA:439,0
DA:442,0
DA:445,0
DA:446,0
DA:447,0
DA:448,0
DA:450,0
DA:451,0
DA:452,0
DA:453,0
DA:455,0
DA:456,0
DA:457,0
DA:460,0
DA:462,0
DA:463,0
DA:464,0
DA:465,0
DA:466,0
DA:467,0
DA:468,0
DA:469,0
DA:470,0
DA:471,0
DA:472,0
DA:473,0
DA:476,0
DA:477,0
DA:478,0
DA:480,0
DA:482,0
DA:483,0
DA:485,0
DA:486,0
DA:487,0
DA:490,0
DA:492,0
DA:493,0
DA:494,0
DA:495,0
DA:496,0
DA:497,0
DA:498,0
DA:499,0
DA:501,0
DA:502,0
DA:503,0
DA:504,0
DA:505,0
DA:508,0
DA:510,0
DA:511,0
DA:512,0
DA:513,0
DA:514,0
DA:515,0
DA:516,0
DA:518,0
DA:519,0
DA:520,0
DA:521,0
DA:522,0
DA:525,0
DA:527,0
DA:529,0
DA:530,0
DA:531,0
DA:532,0
DA:533,0
DA:534,0
DA:535,0
DA:536,0
DA:537,0
DA:538,0
DA:539,0
DA:540,0
DA:541,0
DA:542,0
DA:543,0
DA:544,0
DA:545,0
DA:546,0
DA:547,0
DA:548,0
DA:549,0
DA:551,0
DA:554,0
DA:555,0
BRF:0
BRH:0
LF:362
LH:0
end_of_record
SF:/home/lonless/rust-projects/barks/core/src/expression.rs
FN:185,_RNCINvXNvNtCsleJ6uViwJwk_10barks_core10expressions1_1__NtB7_10ObjectNameNtNtCs1jtb3MfGbeA_5serde2de11Deserialize11deserializepE0B9_
FN:155,_RNCINvXNvNtCsleJ6uViwJwk_10barks_core10expressions_1__NtB7_10IdentifierNtNtCs1jtb3MfGbeA_5serde2de11Deserialize11deserializepE0B9_
FN:975,_RNvMsi_NtCsleJ6uViwJwk_10barks_core10expressionNtB5_14PySparkUdfType17is_table_function
FN:971,_RNvMsi_NtCsleJ6uViwJwk_10barks_core10expressionNtB5_14PySparkUdfType7invalid
FN:946,_RNvXs1E_NtCsleJ6uViwJwk_10barks_core10expressionNtB6_14PySparkUdfTypeINtNtCs54tgE0qq4eT_4core7convert7TryFromlE8try_fromB8_
FN:947,_RNvXs1G_NtCsleJ6uViwJwk_10barks_core10expressionlINtNtCs54tgE0qq4eT_4core7convert4FromNtB6_14PySparkUdfTypeE4fromB8_
FN:595,_RNvXs6_NtCsleJ6uViwJwk_10barks_core10expressionNtNtB5_12serializable4ExprINtNtCs54tgE0qq4eT_4core7convert4FromNtB5_4ExprE4fromB7_
FN:602,_RNvXs7_NtCsleJ6uViwJwk_10barks_core10expressionNtNtB5_12serializable4ExprINtNtCs54tgE0qq4eT_4core7convert4FromNtB5_8ExprKindE4fromB7_
FN:787,_RNvXs8_NtCsleJ6uViwJwk_10barks_core10expressionNtNtB5_12serializable18UnresolvedFunctionINtNtCs54tgE0qq4eT_4core7convert4FromNtB5_18UnresolvedFunctionE4fromB7_
FN:810,_RNvXs9_NtCsleJ6uViwJwk_10barks_core10expressionNtNtB5_12serializable9SortOrderINtNtCs54tgE0qq4eT_4core7convert4FromNtB5_9SortOrderE4fromB7_
FN:821,_RNvXsa_NtCsleJ6uViwJwk_10barks_core10expressionNtNtB5_12serializable15WildcardOptionsINtNtCs54tgE0qq4eT_4core7convert4FromNtB5_15WildcardOptionsE4fromB7_
FN:836,_RNvXsb_NtCsleJ6uViwJwk_10barks_core10expressionNtNtB5_12serializable21WildcardReplaceColumnINtNtCs54tgE0qq4eT_4core7convert4FromNtB5_21WildcardReplaceColumnE4fromB7_
FN:847,_RNvXsc_NtCsleJ6uViwJwk_10barks_core10expressionNtNtB5_12serializable6WindowINtNtCs54tgE0qq4eT_4core7convert4FromNtB5_6WindowE4fromB7_
FN:867,_RNvXsd_NtCsleJ6uViwJwk_10barks_core10expressionNtNtB5_12serializable11WindowFrameINtNtCs54tgE0qq4eT_4core7convert4FromNtB5_11WindowFrameE4fromB7_
FN:878,_RNvXse_NtCsleJ6uViwJwk_10barks_core10expressionNtNtB5_12serializable19WindowFrameBoundaryINtNtCs54tgE0qq4eT_4core7convert4FromNtB5_19WindowFrameBoundaryE4fromB7_
FN:904,_RNvXsf_NtCsleJ6uViwJwk_10barks_core10expressionNtNtB5_12serializable31CommonInlineUserDefinedFunctionINtNtCs54tgE0qq4eT_4core7convert4FromNtB5_31CommonInlineUserDefinedFunctionE4fromB7_
FN:919,_RNvXsg_NtCsleJ6uViwJwk_10barks_core10expressionNtNtB5_12serializable36CommonInlineUserDefinedTableFunctionINtNtCs54tgE0qq4eT_4core7convert4FromNtB5_36CommonInlineUserDefinedTableFunctionE4fromB7_
FN:1002,_RNvNtNtCsleJ6uViwJwk_10barks_core10expression5testss_18test_expr_creation
FN:1480,_RNvNtNtCsleJ6uViwJwk_10barks_core10expression5testss_20test_expr_conversion
FN:1063,_RNvNtNtCsleJ6uViwJwk_10barks_core10expression5testss_20test_expr_kinds_cast
FN:1407,_RNvNtNtCsleJ6uViwJwk_10barks_core10expression5testss_20test_window_variants
FN:1044,_RNvNtNtCsleJ6uViwJwk_10barks_core10expression5testss_21test_expr_kinds_alias
FN:1452,_RNvNtNtCsleJ6uViwJwk_10barks_core10expression5testss_21test_wildcard_options
FN:1149,_RNvNtNtCsleJ6uViwJwk_10barks_core10expression5testss_23test_expr_kinds_between
FN:1171,_RNvNtNtCsleJ6uViwJwk_10barks_core10expression5testss_23test_expr_kinds_in_list
FN:1012,_RNvNtNtCsleJ6uViwJwk_10barks_core10expression5testss_23test_expr_kinds_literal
FN:1309,_RNvNtNtCsleJ6uViwJwk_10barks_core10expression5testss_23test_null_ordering_enum
FN:1365,_RNvNtNtCsleJ6uViwJwk_10barks_core10expression5testss_23test_window_frame_types
FN:1669,_RNvNtNtCsleJ6uViwJwk_10barks_core10expression5testss_24test_expr_kinds_grouping
FN:1625,_RNvNtNtCsleJ6uViwJwk_10barks_core10expression5testss_24test_expr_kinds_subquery
FN:1221,_RNvNtNtCsleJ6uViwJwk_10barks_core10expression5testss_24test_expr_kinds_temporal
FN:1251,_RNvNtNtCsleJ6uViwJwk_10barks_core10expression5testss_24test_identifier_creation
FN:1292,_RNvNtNtCsleJ6uViwJwk_10barks_core10expression5testss_24test_sort_direction_enum
FN:1278,_RNvNtNtCsleJ6uViwJwk_10barks_core10expression5testss_24test_sort_order_creation
FN:1264,_RNvNtNtCsleJ6uViwJwk_10barks_core10expression5testss_25test_object_name_creation
FN:1193,_RNvNtNtCsleJ6uViwJwk_10barks_core10expression5testss_26test_expr_kinds_similar_to
FN:1495,_RNvNtNtCsleJ6uViwJwk_10barks_core10expression5testss_26test_sort_order_conversion
FN:1557,_RNvNtNtCsleJ6uViwJwk_10barks_core10expression5testss_28test_complex_expr_conversion
FN:1378,_RNvNtNtCsleJ6uViwJwk_10barks_core10expression5testss_28test_window_frame_boundaries
FN:1085,_RNvNtNtCsleJ6uViwJwk_10barks_core10expression5testss_32test_expr_kinds_unresolved_regex
FN:1539,_RNvNtNtCsleJ6uViwJwk_10barks_core10expression5testss_32test_wildcard_options_conversion
FN:1326,_RNvNtNtCsleJ6uViwJwk_10barks_core10expression5testss_33test_unresolved_function_creation
FN:1100,_RNvNtNtCsleJ6uViwJwk_10barks_core10expression5testss_34test_expr_kinds_boolean_operations
FN:1513,_RNvNtNtCsleJ6uViwJwk_10barks_core10expression5testss_35test_unresolved_function_conversion
FN:1023,_RNvNtNtCsleJ6uViwJwk_10barks_core10expression5testss_36test_expr_kinds_unresolved_attribute
FN:24,_RNvMNtCsleJ6uViwJwk_10barks_core10expressionNtB2_4Expr3new
FN:200,_RNvMs3_NtCsleJ6uViwJwk_10barks_core10expressionNtB5_10ObjectName5parts
FN:166,_RNvXs0_NtCsleJ6uViwJwk_10barks_core10expressionNtB5_10IdentifierINtNtCs54tgE0qq4eT_4core7convert4FromReE4from
FN:178,_RNvXs2_NtCsleJ6uViwJwk_10barks_core10expressionNtB5_10IdentifierINtNtCs54tgE0qq4eT_4core7convert5AsRefeE6as_ref
FN:160,_RNvXs_NtCsleJ6uViwJwk_10barks_core10expressionNtB4_10IdentifierINtNtCs54tgE0qq4eT_4core7convert4FromNtNtCs48R0vjQGLEQ_5alloc6string6StringE4from
FN:172,_RNvXs1_NtCsleJ6uViwJwk_10barks_core10expressionNtNtCs48R0vjQGLEQ_5alloc6string6StringINtNtCs54tgE0qq4eT_4core7convert4FromNtB5_10IdentifierE4from
FN:190,_RINvMs3_NtCsleJ6uViwJwk_10barks_core10expressionNtB6_10ObjectName4bareReEB8_
FN:194,_RINvMs3_NtCsleJ6uViwJwk_10barks_core10expressionNtB6_10ObjectName5childReEB8_
FN:700,_RNCNCNvXs7_NtCsleJ6uViwJwk_10barks_core10expressionNtNtB9_12serializable4ExprINtNtCs54tgE0qq4eT_4core7convert4FromNtB9_8ExprKindE4froms3_00Bb_
FN:803,_RNCNCNvXs8_NtCsleJ6uViwJwk_10barks_core10expressionNtNtB9_12serializable18UnresolvedFunctionINtNtCs54tgE0qq4eT_4core7convert4FromNtB9_18UnresolvedFunctionE4froms1_00Bb_
FN:828,_RNCNCNvXsa_NtCsleJ6uViwJwk_10barks_core10expressionNtNtB9_12serializable15WildcardOptionsINtNtCs54tgE0qq4eT_4core7convert4FromNtB9_15WildcardOptionsE4from00Bb_
FN:211,_RNCNvXs4_NtCsleJ6uViwJwk_10barks_core10expressionNtB7_10ObjectNameINtNtCs54tgE0qq4eT_4core7convert4FromINtNtCs48R0vjQGLEQ_5alloc3vec3VecReEE4from0B9_
FN:653,_RNCNvXs7_NtCsleJ6uViwJwk_10barks_core10expressionNtNtB7_12serializable4ExprINtNtCs54tgE0qq4eT_4core7convert4FromNtB7_8ExprKindE4from0B9_
FN:688,_RNCNvXs7_NtCsleJ6uViwJwk_10barks_core10expressionNtNtB7_12serializable4ExprINtNtCs54tgE0qq4eT_4core7convert4FromNtB7_8ExprKindE4froms0_0B9_
FN:693,_RNCNvXs7_NtCsleJ6uViwJwk_10barks_core10expressionNtNtB7_12serializable4ExprINtNtCs54tgE0qq4eT_4core7convert4FromNtB7_8ExprKindE4froms1_0B9_
FN:696,_RNCNvXs7_NtCsleJ6uViwJwk_10barks_core10expressionNtNtB7_12serializable4ExprINtNtCs54tgE0qq4eT_4core7convert4FromNtB7_8ExprKindE4froms2_0B9_
FN:700,_RNCNvXs7_NtCsleJ6uViwJwk_10barks_core10expressionNtNtB7_12serializable4ExprINtNtCs54tgE0qq4eT_4core7convert4FromNtB7_8ExprKindE4froms3_0B9_
FN:725,_RNCNvXs7_NtCsleJ6uViwJwk_10barks_core10expressionNtNtB7_12serializable4ExprINtNtCs54tgE0qq4eT_4core7convert4FromNtB7_8ExprKindE4froms4_0B9_
FN:675,_RNCNvXs7_NtCsleJ6uViwJwk_10barks_core10expressionNtNtB7_12serializable4ExprINtNtCs54tgE0qq4eT_4core7convert4FromNtB7_8ExprKindE4froms_0B9_
FN:790,_RNCNvXs8_NtCsleJ6uViwJwk_10barks_core10expressionNtNtB7_12serializable18UnresolvedFunctionINtNtCs54tgE0qq4eT_4core7convert4FromNtB7_18UnresolvedFunctionE4from0B9_
FN:800,_RNCNvXs8_NtCsleJ6uViwJwk_10barks_core10expressionNtNtB7_12serializable18UnresolvedFunctionINtNtCs54tgE0qq4eT_4core7convert4FromNtB7_18UnresolvedFunctionE4froms0_0B9_
FN:803,_RNCNvXs8_NtCsleJ6uViwJwk_10barks_core10expressionNtNtB7_12serializable18UnresolvedFunctionINtNtCs54tgE0qq4eT_4core7convert4FromNtB7_18UnresolvedFunctionE4froms1_0B9_
FN:794,_RNCNvXs8_NtCsleJ6uViwJwk_10barks_core10expressionNtNtB7_12serializable18UnresolvedFunctionINtNtCs54tgE0qq4eT_4core7convert4FromNtB7_18UnresolvedFunctionE4froms_0B9_
FN:828,_RNCNvXsa_NtCsleJ6uViwJwk_10barks_core10expressionNtNtB7_12serializable15WildcardOptionsINtNtCs54tgE0qq4eT_4core7convert4FromNtB7_15WildcardOptionsE4from0B9_
FN:856,_RNCNvXsc_NtCsleJ6uViwJwk_10barks_core10expressionNtNtB7_12serializable6WindowINtNtCs54tgE0qq4eT_4core7convert4FromNtB7_6WindowE4from0B9_
FN:858,_RNCNvXsc_NtCsleJ6uViwJwk_10barks_core10expressionNtNtB7_12serializable6WindowINtNtCs54tgE0qq4eT_4core7convert4FromNtB7_6WindowE4froms0_0B9_
FN:859,_RNCNvXsc_NtCsleJ6uViwJwk_10barks_core10expressionNtNtB7_12serializable6WindowINtNtCs54tgE0qq4eT_4core7convert4FromNtB7_6WindowE4froms1_0B9_
FN:857,_RNCNvXsc_NtCsleJ6uViwJwk_10barks_core10expressionNtNtB7_12serializable6WindowINtNtCs54tgE0qq4eT_4core7convert4FromNtB7_6WindowE4froms_0B9_
FN:909,_RNCNvXsf_NtCsleJ6uViwJwk_10barks_core10expressionNtNtB7_12serializable31CommonInlineUserDefinedFunctionINtNtCs54tgE0qq4eT_4core7convert4FromNtB7_31CommonInlineUserDefinedFunctionE4from0B9_
FN:923,_RNCNvXsg_NtCsleJ6uViwJwk_10barks_core10expressionNtNtB7_12serializable36CommonInlineUserDefinedTableFunctionINtNtCs54tgE0qq4eT_4core7convert4FromNtB7_36CommonInlineUserDefinedTableFunctionE4from0B9_
FN:210,_RNvXs4_NtCsleJ6uViwJwk_10barks_core10expressionNtB5_10ObjectNameINtNtCs54tgE0qq4eT_4core7convert4FromINtNtCs48R0vjQGLEQ_5alloc3vec3VecReEE4fromB7_
FN:931,_RNvXsh_NtCsleJ6uViwJwk_10barks_core10expressionNtNtB5_12serializable29UnresolvedNamedLambdaVariableINtNtCs54tgE0qq4eT_4core7convert4FromNtB5_29UnresolvedNamedLambdaVariableE4from
FN:216,_RNvXs5_NtCsleJ6uViwJwk_10barks_core10expressionINtNtCs48R0vjQGLEQ_5alloc3vec3VecNtNtBO_6string6StringEINtNtCs54tgE0qq4eT_4core7convert4FromNtB5_10ObjectNameE4from
FNDA:0,_RNCINvXNvNtCsleJ6uViwJwk_10barks_core10expressions1_1__NtB7_10ObjectNameNtNtCs1jtb3MfGbeA_5serde2de11Deserialize11deserializepE0B9_
FNDA:0,_RNCINvXNvNtCsleJ6uViwJwk_10barks_core10expressions_1__NtB7_10IdentifierNtNtCs1jtb3MfGbeA_5serde2de11Deserialize11deserializepE0B9_
FNDA:0,_RNvMsi_NtCsleJ6uViwJwk_10barks_core10expressionNtB5_14PySparkUdfType17is_table_function
FNDA:0,_RNvMsi_NtCsleJ6uViwJwk_10barks_core10expressionNtB5_14PySparkUdfType7invalid
FNDA:0,_RNvXs1E_NtCsleJ6uViwJwk_10barks_core10expressionNtB6_14PySparkUdfTypeINtNtCs54tgE0qq4eT_4core7convert7TryFromlE8try_fromB8_
FNDA:0,_RNvXs1G_NtCsleJ6uViwJwk_10barks_core10expressionlINtNtCs54tgE0qq4eT_4core7convert4FromNtB6_14PySparkUdfTypeE4fromB8_
FNDA:7,_RNvXs6_NtCsleJ6uViwJwk_10barks_core10expressionNtNtB5_12serializable4ExprINtNtCs54tgE0qq4eT_4core7convert4FromNtB5_4ExprE4fromB7_
FNDA:7,_RNvXs7_NtCsleJ6uViwJwk_10barks_core10expressionNtNtB5_12serializable4ExprINtNtCs54tgE0qq4eT_4core7convert4FromNtB5_8ExprKindE4fromB7_
FNDA:2,_RNvXs8_NtCsleJ6uViwJwk_10barks_core10expressionNtNtB5_12serializable18UnresolvedFunctionINtNtCs54tgE0qq4eT_4core7convert4FromNtB5_18UnresolvedFunctionE4fromB7_
FNDA:2,_RNvXs9_NtCsleJ6uViwJwk_10barks_core10expressionNtNtB5_12serializable9SortOrderINtNtCs54tgE0qq4eT_4core7convert4FromNtB5_9SortOrderE4fromB7_
FNDA:1,_RNvXsa_NtCsleJ6uViwJwk_10barks_core10expressionNtNtB5_12serializable15WildcardOptionsINtNtCs54tgE0qq4eT_4core7convert4FromNtB5_15WildcardOptionsE4fromB7_
FNDA:0,_RNvXsb_NtCsleJ6uViwJwk_10barks_core10expressionNtNtB5_12serializable21WildcardReplaceColumnINtNtCs54tgE0qq4eT_4core7convert4FromNtB5_21WildcardReplaceColumnE4fromB7_
FNDA:1,_RNvXsc_NtCsleJ6uViwJwk_10barks_core10expressionNtNtB5_12serializable6WindowINtNtCs54tgE0qq4eT_4core7convert4FromNtB5_6WindowE4fromB7_
FNDA:0,_RNvXsd_NtCsleJ6uViwJwk_10barks_core10expressionNtNtB5_12serializable11WindowFrameINtNtCs54tgE0qq4eT_4core7convert4FromNtB5_11WindowFrameE4fromB7_
FNDA:0,_RNvXse_NtCsleJ6uViwJwk_10barks_core10expressionNtNtB5_12serializable19WindowFrameBoundaryINtNtCs54tgE0qq4eT_4core7convert4FromNtB5_19WindowFrameBoundaryE4fromB7_
FNDA:0,_RNvXsf_NtCsleJ6uViwJwk_10barks_core10expressionNtNtB5_12serializable31CommonInlineUserDefinedFunctionINtNtCs54tgE0qq4eT_4core7convert4FromNtB5_31CommonInlineUserDefinedFunctionE4fromB7_
FNDA:0,_RNvXsg_NtCsleJ6uViwJwk_10barks_core10expressionNtNtB5_12serializable36CommonInlineUserDefinedTableFunctionINtNtCs54tgE0qq4eT_4core7convert4FromNtB5_36CommonInlineUserDefinedTableFunctionE4fromB7_
FNDA:1,_RNvNtNtCsleJ6uViwJwk_10barks_core10expression5testss_18test_expr_creation
FNDA:1,_RNvNtNtCsleJ6uViwJwk_10barks_core10expression5testss_20test_expr_conversion
FNDA:1,_RNvNtNtCsleJ6uViwJwk_10barks_core10expression5testss_20test_expr_kinds_cast
FNDA:1,_RNvNtNtCsleJ6uViwJwk_10barks_core10expression5testss_20test_window_variants
FNDA:1,_RNvNtNtCsleJ6uViwJwk_10barks_core10expression5testss_21test_expr_kinds_alias
FNDA:1,_RNvNtNtCsleJ6uViwJwk_10barks_core10expression5testss_21test_wildcard_options
FNDA:1,_RNvNtNtCsleJ6uViwJwk_10barks_core10expression5testss_23test_expr_kinds_between
FNDA:1,_RNvNtNtCsleJ6uViwJwk_10barks_core10expression5testss_23test_expr_kinds_in_list
FNDA:1,_RNvNtNtCsleJ6uViwJwk_10barks_core10expression5testss_23test_expr_kinds_literal
FNDA:1,_RNvNtNtCsleJ6uViwJwk_10barks_core10expression5testss_23test_null_ordering_enum
FNDA:1,_RNvNtNtCsleJ6uViwJwk_10barks_core10expression5testss_23test_window_frame_types
FNDA:1,_RNvNtNtCsleJ6uViwJwk_10barks_core10expression5testss_24test_expr_kinds_grouping
FNDA:1,_RNvNtNtCsleJ6uViwJwk_10barks_core10expression5testss_24test_expr_kinds_subquery
FNDA:1,_RNvNtNtCsleJ6uViwJwk_10barks_core10expression5testss_24test_expr_kinds_temporal
FNDA:1,_RNvNtNtCsleJ6uViwJwk_10barks_core10expression5testss_24test_identifier_creation
FNDA:1,_RNvNtNtCsleJ6uViwJwk_10barks_core10expression5testss_24test_sort_direction_enum
FNDA:1,_RNvNtNtCsleJ6uViwJwk_10barks_core10expression5testss_24test_sort_order_creation
FNDA:1,_RNvNtNtCsleJ6uViwJwk_10barks_core10expression5testss_25test_object_name_creation
FNDA:1,_RNvNtNtCsleJ6uViwJwk_10barks_core10expression5testss_26test_expr_kinds_similar_to
FNDA:1,_RNvNtNtCsleJ6uViwJwk_10barks_core10expression5testss_26test_sort_order_conversion
FNDA:1,_RNvNtNtCsleJ6uViwJwk_10barks_core10expression5testss_28test_complex_expr_conversion
FNDA:1,_RNvNtNtCsleJ6uViwJwk_10barks_core10expression5testss_28test_window_frame_boundaries
FNDA:1,_RNvNtNtCsleJ6uViwJwk_10barks_core10expression5testss_32test_expr_kinds_unresolved_regex
FNDA:1,_RNvNtNtCsleJ6uViwJwk_10barks_core10expression5testss_32test_wildcard_options_conversion
FNDA:1,_RNvNtNtCsleJ6uViwJwk_10barks_core10expression5testss_33test_unresolved_function_creation
FNDA:1,_RNvNtNtCsleJ6uViwJwk_10barks_core10expression5testss_34test_expr_kinds_boolean_operations
FNDA:1,_RNvNtNtCsleJ6uViwJwk_10barks_core10expression5testss_35test_unresolved_function_conversion
FNDA:1,_RNvNtNtCsleJ6uViwJwk_10barks_core10expression5testss_36test_expr_kinds_unresolved_attribute
FNDA:48,_RNvMNtCsleJ6uViwJwk_10barks_core10expressionNtB2_4Expr3new
FNDA:3,_RNvMs3_NtCsleJ6uViwJwk_10barks_core10expressionNtB5_10ObjectName5parts
FNDA:31,_RNvXs0_NtCsleJ6uViwJwk_10barks_core10expressionNtB5_10IdentifierINtNtCs54tgE0qq4eT_4core7convert4FromReE4from
FNDA:5,_RNvXs2_NtCsleJ6uViwJwk_10barks_core10expressionNtB5_10IdentifierINtNtCs54tgE0qq4eT_4core7convert5AsRefeE6as_ref
FNDA:1,_RNvXs_NtCsleJ6uViwJwk_10barks_core10expressionNtB4_10IdentifierINtNtCs54tgE0qq4eT_4core7convert4FromNtNtCs48R0vjQGLEQ_5alloc6string6StringE4from
FNDA:3,_RNvXs1_NtCsleJ6uViwJwk_10barks_core10expressionNtNtCs48R0vjQGLEQ_5alloc6string6StringINtNtCs54tgE0qq4eT_4core7convert4FromNtB5_10IdentifierE4from
FNDA:10,_RINvMs3_NtCsleJ6uViwJwk_10barks_core10expressionNtB6_10ObjectName4bareReEB8_
FNDA:1,_RINvMs3_NtCsleJ6uViwJwk_10barks_core10expressionNtB6_10ObjectName5childReEB8_
FNDA:0,_RNCNCNvXs7_NtCsleJ6uViwJwk_10barks_core10expressionNtNtB9_12serializable4ExprINtNtCs54tgE0qq4eT_4core7convert4FromNtB9_8ExprKindE4froms3_00Bb_
FNDA:0,_RNCNCNvXs8_NtCsleJ6uViwJwk_10barks_core10expressionNtNtB9_12serializable18UnresolvedFunctionINtNtCs54tgE0qq4eT_4core7convert4FromNtB9_18UnresolvedFunctionE4froms1_00Bb_
FNDA:0,_RNCNCNvXsa_NtCsleJ6uViwJwk_10barks_core10expressionNtNtB9_12serializable15WildcardOptionsINtNtCs54tgE0qq4eT_4core7convert4FromNtB9_15WildcardOptionsE4from00Bb_
FNDA:2,_RNCNvXs4_NtCsleJ6uViwJwk_10barks_core10expressionNtB7_10ObjectNameINtNtCs54tgE0qq4eT_4core7convert4FromINtNtCs48R0vjQGLEQ_5alloc3vec3VecReEE4from0B9_
FNDA:0,_RNCNvXs7_NtCsleJ6uViwJwk_10barks_core10expressionNtNtB7_12serializable4ExprINtNtCs54tgE0qq4eT_4core7convert4FromNtB7_8ExprKindE4from0B9_
FNDA:0,_RNCNvXs7_NtCsleJ6uViwJwk_10barks_core10expressionNtNtB7_12serializable4ExprINtNtCs54tgE0qq4eT_4core7convert4FromNtB7_8ExprKindE4froms0_0B9_
FNDA:0,_RNCNvXs7_NtCsleJ6uViwJwk_10barks_core10expressionNtNtB7_12serializable4ExprINtNtCs54tgE0qq4eT_4core7convert4FromNtB7_8ExprKindE4froms1_0B9_
FNDA:0,_RNCNvXs7_NtCsleJ6uViwJwk_10barks_core10expressionNtNtB7_12serializable4ExprINtNtCs54tgE0qq4eT_4core7convert4FromNtB7_8ExprKindE4froms2_0B9_
FNDA:0,_RNCNvXs7_NtCsleJ6uViwJwk_10barks_core10expressionNtNtB7_12serializable4ExprINtNtCs54tgE0qq4eT_4core7convert4FromNtB7_8ExprKindE4froms3_0B9_
FNDA:0,_RNCNvXs7_NtCsleJ6uViwJwk_10barks_core10expressionNtNtB7_12serializable4ExprINtNtCs54tgE0qq4eT_4core7convert4FromNtB7_8ExprKindE4froms4_0B9_
FNDA:0,_RNCNvXs7_NtCsleJ6uViwJwk_10barks_core10expressionNtNtB7_12serializable4ExprINtNtCs54tgE0qq4eT_4core7convert4FromNtB7_8ExprKindE4froms_0B9_
FNDA:1,_RNCNvXs8_NtCsleJ6uViwJwk_10barks_core10expressionNtNtB7_12serializable18UnresolvedFunctionINtNtCs54tgE0qq4eT_4core7convert4FromNtB7_18UnresolvedFunctionE4from0B9_
FNDA:0,_RNCNvXs8_NtCsleJ6uViwJwk_10barks_core10expressionNtNtB7_12serializable18UnresolvedFunctionINtNtCs54tgE0qq4eT_4core7convert4FromNtB7_18UnresolvedFunctionE4froms0_0B9_
FNDA:0,_RNCNvXs8_NtCsleJ6uViwJwk_10barks_core10expressionNtNtB7_12serializable18UnresolvedFunctionINtNtCs54tgE0qq4eT_4core7convert4FromNtB7_18UnresolvedFunctionE4froms1_0B9_
FNDA:0,_RNCNvXs8_NtCsleJ6uViwJwk_10barks_core10expressionNtNtB7_12serializable18UnresolvedFunctionINtNtCs54tgE0qq4eT_4core7convert4FromNtB7_18UnresolvedFunctionE4froms_0B9_
FNDA:0,_RNCNvXsa_NtCsleJ6uViwJwk_10barks_core10expressionNtNtB7_12serializable15WildcardOptionsINtNtCs54tgE0qq4eT_4core7convert4FromNtB7_15WildcardOptionsE4from0B9_
FNDA:0,_RNCNvXsc_NtCsleJ6uViwJwk_10barks_core10expressionNtNtB7_12serializable6WindowINtNtCs54tgE0qq4eT_4core7convert4FromNtB7_6WindowE4from0B9_
FNDA:1,_RNCNvXsc_NtCsleJ6uViwJwk_10barks_core10expressionNtNtB7_12serializable6WindowINtNtCs54tgE0qq4eT_4core7convert4FromNtB7_6WindowE4froms0_0B9_
FNDA:0,_RNCNvXsc_NtCsleJ6uViwJwk_10barks_core10expressionNtNtB7_12serializable6WindowINtNtCs54tgE0qq4eT_4core7convert4FromNtB7_6WindowE4froms1_0B9_
FNDA:1,_RNCNvXsc_NtCsleJ6uViwJwk_10barks_core10expressionNtNtB7_12serializable6WindowINtNtCs54tgE0qq4eT_4core7convert4FromNtB7_6WindowE4froms_0B9_
FNDA:0,_RNCNvXsf_NtCsleJ6uViwJwk_10barks_core10expressionNtNtB7_12serializable31CommonInlineUserDefinedFunctionINtNtCs54tgE0qq4eT_4core7convert4FromNtB7_31CommonInlineUserDefinedFunctionE4from0B9_
FNDA:0,_RNCNvXsg_NtCsleJ6uViwJwk_10barks_core10expressionNtNtB7_12serializable36CommonInlineUserDefinedTableFunctionINtNtCs54tgE0qq4eT_4core7convert4FromNtB7_36CommonInlineUserDefinedTableFunctionE4from0B9_
FNDA:1,_RNvXs4_NtCsleJ6uViwJwk_10barks_core10expressionNtB5_10ObjectNameINtNtCs54tgE0qq4eT_4core7convert4FromINtNtCs48R0vjQGLEQ_5alloc3vec3VecReEE4fromB7_
FNDA:0,_RNvXsh_NtCsleJ6uViwJwk_10barks_core10expressionNtNtB5_12serializable29UnresolvedNamedLambdaVariableINtNtCs54tgE0qq4eT_4core7convert4FromNtB5_29UnresolvedNamedLambdaVariableE4from
FNDA:1,_RNvXs5_NtCsleJ6uViwJwk_10barks_core10expressionINtNtCs48R0vjQGLEQ_5alloc3vec3VecNtNtBO_6string6StringEINtNtCs54tgE0qq4eT_4core7convert4FromNtB5_10ObjectNameE4from
FNF:78
FNH:48
DA:24,48
DA:25,48
DA:26,48
DA:27,48
DA:28,48
DA:29,48
DA:155,0
DA:160,1
DA:161,1
DA:162,1
DA:166,31
DA:167,31
DA:168,31
DA:172,3
DA:173,3
DA:174,3
DA:178,5
DA:179,5
DA:180,5
DA:185,0
DA:190,10
DA:191,10
DA:192,10
DA:194,1
DA:195,1
DA:196,1
DA:197,1
DA:198,1
DA:200,3
DA:201,3
DA:202,3
DA:210,1
DA:211,2
DA:212,1
DA:216,1
DA:217,1
DA:218,1
DA:595,7
DA:596,7
DA:597,7
DA:602,7
DA:603,7
DA:604,3
DA:606,2
DA:607,2
DA:608,2
DA:609,2
DA:610,2
DA:611,2
DA:612,2
DA:613,2
DA:614,1
DA:615,1
DA:618,0
DA:619,0
DA:620,0
DA:621,0
DA:622,0
DA:623,0
DA:624,0
DA:625,0
DA:627,0
DA:628,0
DA:629,0
DA:630,0
DA:631,0
DA:632,0
DA:633,0
DA:634,0
DA:636,0
DA:637,0
DA:638,0
DA:639,0
DA:640,0
DA:641,0
DA:642,0
DA:643,0
DA:644,0
DA:645,0
DA:647,0
DA:649,0
DA:650,0
DA:651,0
DA:652,0
DA:653,0
DA:654,0
DA:656,1
DA:657,1
DA:658,1
DA:659,1
DA:660,1
DA:661,1
DA:662,0
DA:663,0
DA:664,0
DA:665,0
DA:666,0
DA:669,0
DA:670,0
DA:671,0
DA:672,0
DA:673,0
DA:674,0
DA:675,0
DA:676,0
DA:677,0
DA:678,0
DA:680,0
DA:681,0
DA:684,0
DA:685,0
DA:686,0
DA:687,0
DA:688,0
DA:689,0
DA:691,0
DA:692,0
DA:693,0
DA:695,0
DA:696,0
DA:698,0
DA:699,0
DA:700,0
DA:701,0
DA:702,0
DA:704,0
DA:705,0
DA:706,0
DA:707,0
DA:708,0
DA:709,0
DA:710,0
DA:711,0
DA:712,0
DA:713,0
DA:714,0
DA:715,0
DA:716,0
DA:717,0
DA:718,0
DA:720,0
DA:721,0
DA:722,0
DA:723,0
DA:724,0
DA:725,0
DA:726,0
DA:727,0
DA:728,0
DA:729,0
DA:730,0
DA:731,0
DA:732,0
DA:733,0
DA:734,0
DA:735,0
DA:736,0
DA:739,0
DA:740,0
DA:741,0
DA:742,0
DA:743,0
DA:744,0
DA:745,0
DA:746,0
DA:747,0
DA:748,0
DA:749,0
DA:750,0
DA:751,0
DA:752,0
DA:753,0
DA:754,0
DA:755,0
DA:756,0
DA:758,0
DA:759,0
DA:760,0
DA:761,0
DA:762,0
DA:763,0
DA:764,0
DA:765,0
DA:766,0
DA:767,0
DA:768,0
DA:769,0
DA:770,0
DA:771,0
DA:772,0
DA:773,0
DA:775,0
DA:776,0
DA:777,0
DA:778,0
DA:779,0
DA:780,0
DA:782,7
DA:787,2
DA:788,2
DA:789,2
DA:790,2
DA:791,2
DA:792,2
DA:793,2
DA:794,2
DA:795,2
DA:796,2
DA:797,2
DA:798,2
DA:799,2
DA:800,2
DA:801,2
DA:802,2
DA:803,2
DA:804,2
DA:805,2
DA:810,2
DA:811,2
DA:812,2
DA:813,2
DA:814,2
DA:815,2
DA:816,2
DA:821,1
DA:822,1
DA:823,1
DA:824,1
DA:825,1
DA:826,1
DA:827,1
DA:828,1
DA:829,1
DA:830,1
DA:831,1
DA:836,0
DA:837,0
DA:838,0
DA:839,0
DA:840,0
DA:841,0
DA:842,0
DA:847,1
DA:848,1
DA:849,0
DA:851,1
DA:852,1
DA:853,1
DA:854,1
DA:855,1
DA:856,1
DA:857,1
DA:858,1
DA:859,1
DA:860,1
DA:862,1
DA:867,0
DA:868,0
DA:869,0
DA:870,0
DA:871,0
DA:872,0
DA:873,0
DA:878,0
DA:879,0
DA:880,0
DA:882,0
DA:885,0
DA:887,0
DA:888,0
DA:890,0
DA:891,0
DA:893,0
DA:894,0
DA:897,0
DA:904,0
DA:905,0
DA:906,0
DA:907,0
DA:908,0
DA:909,0
DA:910,0
DA:911,0
DA:912,0
DA:919,0
DA:920,0
DA:921,0
DA:922,0
DA:923,0
DA:924,0
DA:925,0
DA:926,0
DA:931,0
DA:932,0
DA:933,0
DA:946,0
DA:947,0
DA:971,0
DA:972,0
DA:973,0
DA:975,0
DA:976,0
DA:977,0
DA:1002,1
DA:1003,1
DA:1004,1
DA:1005,1
DA:1006,1
DA:1007,0
DA:1009,1
DA:1012,1
DA:1013,1
DA:1014,1
DA:1015,1
DA:1016,1
DA:1017,1
DA:1018,0
DA:1020,1
DA:1023,1
DA:1024,1
DA:1025,1
DA:1026,1
DA:1027,1
DA:1028,1
DA:1029,1
DA:1031,1
DA:1032,1
DA:1033,1
DA:1034,1
DA:1035,1
DA:1036,1
DA:1037,1
DA:1039,0
DA:1041,1
DA:1044,1
DA:1045,1
DA:1046,1
DA:1047,1
DA:1048,1
DA:1049,1
DA:1050,1
DA:1051,1
DA:1052,1
DA:1053,1
DA:1054,1
DA:1055,1
DA:1056,1
DA:1058,0
DA:1060,1
DA:1063,1
DA:1064,1
DA:1065,1
DA:1066,1
DA:1067,1
DA:1068,1
DA:1069,1
DA:1070,1
DA:1071,1
DA:1073,1
DA:1074,1
DA:1075,1
DA:1076,1
DA:1077,1
DA:1078,1
DA:1080,0
DA:1082,1
DA:1085,1
DA:1086,1
DA:1087,1
DA:1088,1
DA:1089,1
DA:1090,1
DA:1091,1
DA:1092,1
DA:1093,1
DA:1095,0
DA:1097,1
DA:1100,1
DA:1101,1
DA:1102,1
DA:1103,1
DA:1104,1
DA:1105,1
DA:1106,1
DA:1107,1
DA:1108,1
DA:1109,1
DA:1110,1
DA:1111,1
DA:1112,1
DA:1113,1
DA:1114,1
DA:1115,1
DA:1116,0
DA:1118,1
DA:1119,1
DA:1120,0
DA:1122,1
DA:1123,1
DA:1124,0
DA:1126,1
DA:1127,1
DA:1128,0
DA:1130,1
DA:1131,1
DA:1132,0
DA:1134,1
DA:1135,1
DA:1136,0
DA:1138,1
DA:1139,1
DA:1140,0
DA:1142,1
DA:1143,1
DA:1144,0
DA:1146,1
DA:1149,1
DA:1150,1
DA:1151,1
DA:1152,1
DA:1153,1
DA:1154,1
DA:1155,1
DA:1156,1
DA:1157,1
DA:1158,1
DA:1159,1
DA:1160,1
DA:1161,1
DA:1162,1
DA:1163,1
DA:1164,1
DA:1166,0
DA:1168,1
DA:1171,1
DA:1172,1
DA:1173,1
DA:1174,1
DA:1175,1
DA:1176,1
DA:1177,1
DA:1178,1
DA:1179,1
DA:1180,1
DA:1181,1
DA:1182,1
DA:1183,1
DA:1184,1
DA:1185,1
DA:1186,1
DA:1188,0
DA:1190,1
DA:1193,1
DA:1194,1
DA:1195,1
DA:1196,1
DA:1197,1
DA:1198,1
DA:1199,1
DA:1200,1
DA:1201,1
DA:1202,1
DA:1203,1
DA:1204,1
DA:1205,1
DA:1207,1
DA:1208,1
DA:1209,1
DA:1210,1
DA:1211,1
DA:1212,1
DA:1213,1
DA:1214,1
DA:1216,0
DA:1218,1
DA:1221,1
DA:1222,1
DA:1223,1
DA:1224,1
DA:1225,1
DA:1226,1
DA:1227,1
DA:1228,1
DA:1229,1
DA:1230,1
DA:1231,1
DA:1232,1
DA:1234,0
DA:1236,1
DA:1238,1
DA:1239,1
DA:1240,1
DA:1241,1
DA:1242,1
DA:1244,0
DA:1246,1
DA:1251,1
DA:1252,1
DA:1253,1
DA:1254,1
DA:1255,1
DA:1256,1
DA:1257,1
DA:1259,1
DA:1260,1
DA:1261,1
DA:1264,1
DA:1265,1
DA:1266,1
DA:1267,1
DA:1268,1
DA:1269,1
DA:1270,1
DA:1271,1
DA:1273,1
DA:1274,1
DA:1275,1
DA:1278,1
DA:1279,1
DA:1280,1
DA:1281,1
DA:1282,1
DA:1283,1
DA:1284,1
DA:1285,1
DA:1286,1
DA:1287,1
DA:1288,1
DA:1289,1
DA:1292,1
DA:1293,1
DA:1294,1
DA:1295,1
DA:1296,1
DA:1297,1
DA:1299,4
DA:1301,3
DA:1302,3
DA:1303,3
DA:1304,3
DA:1306,1
DA:1309,1
DA:1310,1
DA:1311,1
DA:1312,1
DA:1313,1
DA:1314,1
DA:1316,4
DA:1318,3
DA:1319,3
DA:1320,3
DA:1321,3
DA:1323,1
DA:1326,1
DA:1327,1
DA:1328,1
DA:1329,1
DA:1330,1
DA:1331,1
DA:1332,1
DA:1333,1
DA:1334,1
DA:1335,1
DA:1336,1
DA:1337,1
DA:1338,1
DA:1339,1
DA:1340,1
DA:1341,1
DA:1342,1
DA:1343,1
DA:1344,1
DA:1345,1
DA:1346,1
DA:1347,1
DA:1348,1
DA:1349,1
DA:1350,1
DA:1351,1
DA:1352,1
DA:1353,1
DA:1354,1
DA:1355,1
DA:1356,1
DA:1357,1
DA:1358,1
DA:1359,1
DA:1360,1
DA:1361,1
DA:1362,1
DA:1365,1
DA:1366,1
DA:1368,3
DA:1370,2
DA:1371,2
DA:1372,2
DA:1373,2
DA:1375,1
DA:1378,1
DA:1379,1
DA:1380,1
DA:1381,1
DA:1382,1
DA:1383,1
DA:1384,1
DA:1385,1
DA:1386,1
DA:1387,1
DA:1388,1
DA:1389,1
DA:1390,1
DA:1391,1
DA:1392,1
DA:1394,7
DA:1395,6
DA:1396,1
DA:1397,1
DA:1398,1
DA:1399,1
DA:1400,1
DA:1401,1
DA:1404,1
DA:1407,1
DA:1408,1
DA:1409,1
DA:1410,1
DA:1411,1
DA:1412,1
DA:1413,1
DA:1414,1
DA:1415,1
DA:1416,1
DA:1417,1
DA:1418,1
DA:1419,1
DA:1420,1
DA:1421,1
DA:1422,1
DA:1423,1
DA:1424,1
DA:1425,1
DA:1426,1
DA:1427,1
DA:1428,1
DA:1429,1
DA:1430,1
DA:1431,1
DA:1432,0
DA:1435,1
DA:1437,1
DA:1438,1
DA:1439,1
DA:1440,1
DA:1441,1
DA:1442,1
DA:1443,1
DA:1444,1
DA:1445,1
DA:1447,0
DA:1449,1
DA:1452,1
DA:1453,1
DA:1454,1
DA:1455,1
DA:1456,1
DA:1457,1
DA:1458,1
DA:1459,1
DA:1460,1
DA:1461,1
DA:1462,1
DA:1463,1
DA:1464,1
DA:1465,1
DA:1466,1
DA:1467,1
DA:1468,1
DA:1469,1
DA:1470,1
DA:1471,1
DA:1472,1
DA:1473,1
DA:1474,1
DA:1475,1
DA:1480,1
DA:1481,1
DA:1482,1
DA:1483,1
DA:1484,1
DA:1485,1
DA:1486,1
DA:1487,1
DA:1488,1
DA:1489,1
DA:1490,0
DA:1492,1
DA:1495,1
DA:1496,1
DA:1497,1
DA:1498,1
DA:1499,1
DA:1500,1
DA:1501,1
DA:1502,1
DA:1503,1
DA:1504,1
DA:1505,1
DA:1506,1
DA:1507,1
DA:1508,1
DA:1509,1
DA:1510,1
DA:1513,1
DA:1514,1
DA:1515,1
DA:1516,1
DA:1517,1
DA:1518,1
DA:1519,1
DA:1520,1
DA:1521,1
DA:1522,1
DA:1523,1
DA:1524,1
DA:1525,1
DA:1526,1
DA:1527,1
DA:1528,1
DA:1529,1
DA:1530,1
DA:1531,1
DA:1532,1
DA:1533,1
DA:1534,1
DA:1535,1
DA:1536,1
DA:1539,1
DA:1540,1
DA:1541,1
DA:1542,1
DA:1543,1
DA:1544,1
DA:1545,1
DA:1546,1
DA:1547,1
DA:1548,1
DA:1549,1
DA:1550,1
DA:1551,1
DA:1552,1
DA:1553,1
DA:1554,1
DA:1557,1
DA:1558,1
DA:1559,1
DA:1560,1
DA:1561,1
DA:1562,1
DA:1563,1
DA:1564,1
DA:1565,1
DA:1566,1
DA:1567,1
DA:1568,1
DA:1569,1
DA:1570,1
DA:1571,1
DA:1572,1
DA:1573,1
DA:1574,1
DA:1575,1
DA:1576,1
DA:1577,1
DA:1578,1
DA:1579,1
DA:1580,1
DA:1581,1
DA:1582,1
DA:1583,1
DA:1584,1
DA:1585,1
DA:1586,1
DA:1587,1
DA:1588,1
DA:1589,1
DA:1590,1
DA:1591,1
DA:1592,1
DA:1593,1
DA:1594,1
DA:1595,1
DA:1596,1
DA:1597,1
DA:1598,1
DA:1599,1
DA:1600,1
DA:1601,1
DA:1602,1
DA:1603,1
DA:1604,1
DA:1606,1
DA:1607,1
DA:1608,1
DA:1609,1
DA:1610,1
DA:1611,0
DA:1613,1
DA:1614,1
DA:1615,1
DA:1617,0
DA:1620,0
DA:1622,1
DA:1625,1
DA:1628,1
DA:1629,1
DA:1630,1
DA:1631,1
DA:1632,1
DA:1633,1
DA:1634,1
DA:1635,1
DA:1636,1
DA:1637,1
DA:1638,1
DA:1639,1
DA:1640,1
DA:1641,1
DA:1642,1
DA:1643,1
DA:1644,1
DA:1645,1
DA:1646,1
DA:1647,1
DA:1648,1
DA:1649,1
DA:1650,1
DA:1651,1
DA:1652,1
DA:1653,1
DA:1654,0
DA:1657,1
DA:1658,1
DA:1659,0
DA:1662,1
DA:1663,1
DA:1664,0
DA:1666,1
DA:1669,1
DA:1670,1
DA:1671,1
DA:1672,1
DA:1673,1
DA:1674,1
DA:1675,1
DA:1676,1
DA:1677,1
DA:1678,1
DA:1679,1
DA:1680,1
DA:1681,1
DA:1682,1
DA:1683,1
DA:1684,1
DA:1685,1
DA:1686,1
DA:1687,1
DA:1688,1
DA:1689,1
DA:1690,1
DA:1691,1
DA:1692,1
DA:1693,1
DA:1694,1
DA:1695,0
DA:1698,1
DA:1699,1
DA:1700,0
DA:1703,1
DA:1704,1
DA:1705,0
DA:1707,1
BRF:0
BRH:0
LF:903
LH:659
end_of_record
SF:/home/lonless/rust-projects/barks/core/src/literal.rs
FN:228,_RNvNtCsleJ6uViwJwk_10barks_core7literal25data_type_to_null_literal
FN:200,_RINvNtCsleJ6uViwJwk_10barks_core7literal18serialize_optionalNtNtCsiywS2VMKdra_12arrow_buffer6bigint4i256QINtNtCs68TxGPNmNTF_10serde_json3ser10SerializerQINtNtCs48R0vjQGLEQ_5alloc3vec3VechEEEB4_
FN:200,_RINvNtCsleJ6uViwJwk_10barks_core7literal18serialize_optionalnQINtNtCs68TxGPNmNTF_10serde_json3ser10SerializerQINtNtCs48R0vjQGLEQ_5alloc3vec3VechEEEB4_
FN:214,_RINvNtCsleJ6uViwJwk_10barks_core7literal20deserialize_optionalNtNtCsiywS2VMKdra_12arrow_buffer6bigint4i256QINtNtCs68TxGPNmNTF_10serde_json2de12DeserializerNtNtB1M_4read7StrReadEEB4_
FN:214,_RINvNtCsleJ6uViwJwk_10barks_core7literal20deserialize_optionalnQINtNtCs68TxGPNmNTF_10serde_json2de12DeserializerNtNtB15_4read7StrReadEEB4_
FN:17,_RNCINvXs22_NvXs0_NvXNvNtCsleJ6uViwJwk_10barks_core7literals_1__NtBk_7LiteralNtNtCs1jtb3MfGbeA_5serde2de11Deserialize11deserializeNtBf_9___VisitorNtB1e_7Visitor10visit_enumNtB9_sE_9___VisitorB2j_9visit_seqINtNtCs68TxGPNmNTF_10serde_json2de9SeqAccessNtNtB3l_4read7StrReadEE0Bm_
FN:17,_RNCINvXs25_NvXs0_NvXNvNtCsleJ6uViwJwk_10barks_core7literals_1__NtBk_7LiteralNtNtCs1jtb3MfGbeA_5serde2de11Deserialize11deserializeNtBf_9___VisitorNtB1e_7Visitor10visit_enumNtB9_sF_9___VisitorB2j_9visit_seqINtNtCs68TxGPNmNTF_10serde_json2de9SeqAccessNtNtB3l_4read7StrReadEE0Bm_
FN:229,_RNCNvNtCsleJ6uViwJwk_10barks_core7literal25data_type_to_null_literal0B5_
FN:1009,_RNvNtNtCsleJ6uViwJwk_10barks_core7literal5testss_16test_map_literal
FN:1644,_RNvNtNtCsleJ6uViwJwk_10barks_core7literal5testss_18test_literal_clone
FN:1416,_RNvNtNtCsleJ6uViwJwk_10barks_core7literal5testss_18test_literal_debug
FN:1439,_RNvNtNtCsleJ6uViwJwk_10barks_core7literal5testss_18test_union_literal
FN:960,_RNvNtNtCsleJ6uViwJwk_10barks_core7literal5testss_19test_struct_literal
FN:716,_RNvNtNtCsleJ6uViwJwk_10barks_core7literal5testss_20test_binary_literals
FN:762,_RNvNtNtCsleJ6uViwJwk_10barks_core7literal5testss_20test_string_literals
FN:881,_RNvNtNtCsleJ6uViwJwk_10barks_core7literal5testss_21test_complex_literals
FN:815,_RNvNtNtCsleJ6uViwJwk_10barks_core7literal5testss_21test_decimal_literals
FN:1359,_RNvNtNtCsleJ6uViwJwk_10barks_core7literal5testss_21test_interval_structs
FN:372,_RNvNtNtCsleJ6uViwJwk_10barks_core7literal5testss_21test_literal_creation
FN:1396,_RNvNtNtCsleJ6uViwJwk_10barks_core7literal5testss_21test_literal_equality
FN:399,_RNvNtNtCsleJ6uViwJwk_10barks_core7literal5testss_21test_numeric_literals
FN:664,_RNvNtNtCsleJ6uViwJwk_10barks_core7literal5testss_22test_interval_literals
FN:503,_RNvNtNtCsleJ6uViwJwk_10barks_core7literal5testss_22test_temporal_literals
FN:1530,_RNvNtNtCsleJ6uViwJwk_10barks_core7literal5testss_23test_dictionary_literal
FN:1669,_RNvNtNtCsleJ6uViwJwk_10barks_core7literal5testss_23test_literal_partial_eq
FN:1330,_RNvNtNtCsleJ6uViwJwk_10barks_core7literal5testss_26test_decimal_serialization
FN:1300,_RNvNtNtCsleJ6uViwJwk_10barks_core7literal5testss_26test_literal_serialization
FN:1267,_RNvNtNtCsleJ6uViwJwk_10barks_core7literal5testss_28test_serialization_functions
FN:1615,_RNvNtNtCsleJ6uViwJwk_10barks_core7literal5testss_29test_serialization_edge_cases
FN:1721,_RNvNtNtCsleJ6uViwJwk_10barks_core7literal5testss_31test_interval_struct_edge_cases
FN:1240,_RNvNtNtCsleJ6uViwJwk_10barks_core7literal5testss_37test_data_type_to_null_literal_errors
FN:1182,_RNvNtNtCsleJ6uViwJwk_10barks_core7literal5testss_38test_data_type_to_null_literal_complex
FN:1102,_RNvNtNtCsleJ6uViwJwk_10barks_core7literal5testss_39test_data_type_to_null_literal_temporal
FN:1152,_RNvNtNtCsleJ6uViwJwk_10barks_core7literal5testss_40test_data_type_to_null_literal_intervals
FN:1074,_RNvNtNtCsleJ6uViwJwk_10barks_core7literal5testss_41test_data_type_to_null_literal_primitives
FN:1591,_RNvNtNtCsleJ6uViwJwk_10barks_core7literal5testss_43test_data_type_to_null_literal_user_defined
FN:1745,_RNvNtNtCsleJ6uViwJwk_10barks_core7literal5testss_45test_data_type_to_null_literal_all_primitives
FN:1581,_RNvNtNtCsleJ6uViwJwk_10barks_core7literal5testss_46test_data_type_to_null_literal_configured_utf8
FN:1606,_RNvNtNtCsleJ6uViwJwk_10barks_core7literal5testss_48test_data_type_to_null_literal_configured_binary
FNDA:48,_RNvNtCsleJ6uViwJwk_10barks_core7literal25data_type_to_null_literal
FNDA:2,_RINvNtCsleJ6uViwJwk_10barks_core7literal18serialize_optionalNtNtCsiywS2VMKdra_12arrow_buffer6bigint4i256QINtNtCs68TxGPNmNTF_10serde_json3ser10SerializerQINtNtCs48R0vjQGLEQ_5alloc3vec3VechEEEB4_
FNDA:4,_RINvNtCsleJ6uViwJwk_10barks_core7literal18serialize_optionalnQINtNtCs68TxGPNmNTF_10serde_json3ser10SerializerQINtNtCs48R0vjQGLEQ_5alloc3vec3VechEEEB4_
FNDA:2,_RINvNtCsleJ6uViwJwk_10barks_core7literal20deserialize_optionalNtNtCsiywS2VMKdra_12arrow_buffer6bigint4i256QINtNtCs68TxGPNmNTF_10serde_json2de12DeserializerNtNtB1M_4read7StrReadEEB4_
FNDA:5,_RINvNtCsleJ6uViwJwk_10barks_core7literal20deserialize_optionalnQINtNtCs68TxGPNmNTF_10serde_json2de12DeserializerNtNtB15_4read7StrReadEEB4_
FNDA:0,_RNCINvXs22_NvXs0_NvXNvNtCsleJ6uViwJwk_10barks_core7literals_1__NtBk_7LiteralNtNtCs1jtb3MfGbeA_5serde2de11Deserialize11deserializeNtBf_9___VisitorNtB1e_7Visitor10visit_enumNtB9_sE_9___VisitorB2j_9visit_seqINtNtCs68TxGPNmNTF_10serde_json2de9SeqAccessNtNtB3l_4read7StrReadEE0Bm_
FNDA:0,_RNCINvXs25_NvXs0_NvXNvNtCsleJ6uViwJwk_10barks_core7literals_1__NtBk_7LiteralNtNtCs1jtb3MfGbeA_5serde2de11Deserialize11deserializeNtBf_9___VisitorNtB1e_7Visitor10visit_enumNtB9_sF_9___VisitorB2j_9visit_seqINtNtCs68TxGPNmNTF_10serde_json2de9SeqAccessNtNtB3l_4read7StrReadEE0Bm_
FNDA:4,_RNCNvNtCsleJ6uViwJwk_10barks_core7literal25data_type_to_null_literal0B5_
FNDA:1,_RNvNtNtCsleJ6uViwJwk_10barks_core7literal5testss_16test_map_literal
FNDA:1,_RNvNtNtCsleJ6uViwJwk_10barks_core7literal5testss_18test_literal_clone
FNDA:1,_RNvNtNtCsleJ6uViwJwk_10barks_core7literal5testss_18test_literal_debug
FNDA:1,_RNvNtNtCsleJ6uViwJwk_10barks_core7literal5testss_18test_union_literal
FNDA:1,_RNvNtNtCsleJ6uViwJwk_10barks_core7literal5testss_19test_struct_literal
FNDA:1,_RNvNtNtCsleJ6uViwJwk_10barks_core7literal5testss_20test_binary_literals
FNDA:1,_RNvNtNtCsleJ6uViwJwk_10barks_core7literal5testss_20test_string_literals
FNDA:1,_RNvNtNtCsleJ6uViwJwk_10barks_core7literal5testss_21test_complex_literals
FNDA:1,_RNvNtNtCsleJ6uViwJwk_10barks_core7literal5testss_21test_decimal_literals
FNDA:1,_RNvNtNtCsleJ6uViwJwk_10barks_core7literal5testss_21test_interval_structs
FNDA:1,_RNvNtNtCsleJ6uViwJwk_10barks_core7literal5testss_21test_literal_creation
FNDA:1,_RNvNtNtCsleJ6uViwJwk_10barks_core7literal5testss_21test_literal_equality
FNDA:1,_RNvNtNtCsleJ6uViwJwk_10barks_core7literal5testss_21test_numeric_literals
FNDA:1,_RNvNtNtCsleJ6uViwJwk_10barks_core7literal5testss_22test_interval_literals
FNDA:1,_RNvNtNtCsleJ6uViwJwk_10barks_core7literal5testss_22test_temporal_literals
FNDA:1,_RNvNtNtCsleJ6uViwJwk_10barks_core7literal5testss_23test_dictionary_literal
FNDA:1,_RNvNtNtCsleJ6uViwJwk_10barks_core7literal5testss_23test_literal_partial_eq
FNDA:1,_RNvNtNtCsleJ6uViwJwk_10barks_core7literal5testss_26test_decimal_serialization
FNDA:1,_RNvNtNtCsleJ6uViwJwk_10barks_core7literal5testss_26test_literal_serialization
FNDA:1,_RNvNtNtCsleJ6uViwJwk_10barks_core7literal5testss_28test_serialization_functions
FNDA:1,_RNvNtNtCsleJ6uViwJwk_10barks_core7literal5testss_29test_serialization_edge_cases
FNDA:1,_RNvNtNtCsleJ6uViwJwk_10barks_core7literal5testss_31test_interval_struct_edge_cases
FNDA:1,_RNvNtNtCsleJ6uViwJwk_10barks_core7literal5testss_37test_data_type_to_null_literal_errors
FNDA:1,_RNvNtNtCsleJ6uViwJwk_10barks_core7literal5testss_38test_data_type_to_null_literal_complex
FNDA:1,_RNvNtNtCsleJ6uViwJwk_10barks_core7literal5testss_39test_data_type_to_null_literal_temporal
FNDA:1,_RNvNtNtCsleJ6uViwJwk_10barks_core7literal5testss_40test_data_type_to_null_literal_intervals
FNDA:1,_RNvNtNtCsleJ6uViwJwk_10barks_core7literal5testss_41test_data_type_to_null_literal_primitives
FNDA:1,_RNvNtNtCsleJ6uViwJwk_10barks_core7literal5testss_43test_data_type_to_null_literal_user_defined
FNDA:1,_RNvNtNtCsleJ6uViwJwk_10barks_core7literal5testss_45test_data_type_to_null_literal_all_primitives
FNDA:1,_RNvNtNtCsleJ6uViwJwk_10barks_core7literal5testss_46test_data_type_to_null_literal_configured_utf8
FNDA:1,_RNvNtNtCsleJ6uViwJwk_10barks_core7literal5testss_48test_data_type_to_null_literal_configured_binary
FNF:36
FNH:35
DA:17,0
DA:200,6
DA:201,6
DA:202,6
DA:203,6
DA:204,6
DA:205,6
DA:206,6
DA:207,6
DA:208,6
DA:209,3
DA:210,3
DA:212,6
DA:214,7
DA:215,7
DA:216,7
DA:217,7
DA:218,7
DA:219,7
DA:220,7
DA:221,7
DA:222,4
DA:223,3
DA:225,7
DA:228,48
DA:229,48
DA:230,4
DA:231,4
DA:233,48
DA:234,30
DA:235,2
DA:236,2
DA:237,1
DA:238,1
DA:239,3
DA:240,1
DA:241,1
DA:242,1
DA:243,1
DA:244,1
DA:245,1
DA:246,1
DA:247,1
DA:248,2
DA:249,1
DA:250,2
DA:251,1
DA:252,1
DA:253,2
DA:254,1
DA:255,1
DA:256,2
DA:259,2
DA:260,2
DA:261,2
DA:262,1
DA:263,1
DA:264,1
DA:265,1
DA:266,1
DA:267,1
DA:268,1
DA:269,1
DA:270,0
DA:271,0
DA:272,0
DA:273,0
DA:274,0
DA:275,0
DA:276,0
DA:277,0
DA:279,3
DA:280,1
DA:281,0
DA:282,2
DA:284,3
DA:285,2
DA:286,1
DA:287,0
DA:289,1
DA:290,0
DA:291,0
DA:292,0
DA:293,1
DA:295,3
DA:296,1
DA:297,1
DA:298,1
DA:300,1
DA:301,1
DA:302,1
DA:303,1
DA:304,1
DA:305,1
DA:306,1
DA:307,1
DA:309,0
DA:310,0
DA:311,0
DA:312,0
DA:313,0
DA:314,0
DA:315,0
DA:316,0
DA:317,0
DA:318,0
DA:319,0
DA:320,0
DA:321,0
DA:322,0
DA:324,0
DA:325,0
DA:326,0
DA:327,0
DA:328,0
DA:329,0
DA:330,0
DA:332,0
DA:333,0
DA:334,0
DA:335,0
DA:336,0
DA:337,0
DA:338,0
DA:339,1
DA:340,1
DA:341,1
DA:342,1
DA:343,1
DA:344,1
DA:345,1
DA:346,1
DA:347,1
DA:348,1
DA:350,0
DA:351,0
DA:352,0
DA:353,0
DA:354,0
DA:355,0
DA:356,0
DA:357,0
DA:358,0
DA:359,1
DA:360,1
DA:362,48
DA:372,1
DA:373,1
DA:374,1
DA:375,1
DA:377,1
DA:378,1
DA:379,1
DA:380,0
DA:383,1
DA:384,1
DA:385,1
DA:386,0
DA:389,1
DA:390,1
DA:391,1
DA:392,1
DA:393,1
DA:394,0
DA:396,1
DA:399,1
DA:400,1
DA:401,1
DA:402,1
DA:403,1
DA:404,1
DA:405,1
DA:406,1
DA:407,1
DA:408,1
DA:409,1
DA:410,1
DA:411,1
DA:412,1
DA:413,1
DA:414,1
DA:415,1
DA:416,1
DA:417,1
DA:418,1
DA:419,1
DA:420,1
DA:421,1
DA:422,1
DA:423,1
DA:424,1
DA:425,1
DA:426,1
DA:427,1
DA:428,1
DA:429,1
DA:432,1
DA:433,1
DA:434,0
DA:438,1
DA:441,1
DA:442,0
DA:445,1
DA:448,1
DA:449,0
DA:452,1
DA:455,1
DA:456,0
DA:460,1
DA:461,1
DA:462,0
DA:465,1
DA:466,1
DA:467,0
DA:470,1
DA:473,1
DA:474,0
DA:477,1
DA:480,1
DA:481,0
DA:485,1
DA:486,1
DA:487,0
DA:490,1
DA:491,1
DA:492,0
DA:495,1
DA:496,1
DA:497,1
DA:498,0
DA:500,1
DA:503,1
DA:504,1
DA:505,1
DA:506,1
DA:507,1
DA:508,1
DA:509,1
DA:510,1
DA:511,1
DA:512,1
DA:513,1
DA:514,1
DA:515,1
DA:516,1
DA:517,1
DA:518,1
DA:519,1
DA:520,1
DA:521,1
DA:522,1
DA:523,1
DA:524,1
DA:525,1
DA:526,1
DA:527,1
DA:528,1
DA:529,1
DA:530,1
DA:531,1
DA:532,1
DA:533,1
DA:534,1
DA:535,1
DA:536,1
DA:537,1
DA:538,1
DA:539,1
DA:540,1
DA:541,1
DA:542,1
DA:543,1
DA:544,1
DA:545,1
DA:546,1
DA:547,1
DA:548,1
DA:549,1
DA:550,1
DA:551,1
DA:552,1
DA:553,1
DA:554,1
DA:555,1
DA:556,1
DA:557,1
DA:560,1
DA:564,1
DA:565,0
DA:568,1
DA:572,1
DA:573,0
DA:576,1
DA:580,1
DA:581,0
DA:584,1
DA:588,1
DA:589,0
DA:592,1
DA:593,1
DA:594,0
DA:597,1
DA:600,1
DA:601,0
DA:605,1
DA:608,1
DA:609,0
DA:612,1
DA:615,1
DA:616,0
DA:619,1
DA:622,1
DA:623,0
DA:626,1
DA:629,1
DA:630,0
DA:634,1
DA:637,1
DA:638,0
DA:641,1
DA:644,1
DA:645,0
DA:648,1
DA:651,1
DA:652,0
DA:655,1
DA:658,1
DA:659,0
DA:661,1
DA:664,1
DA:665,1
DA:666,1
DA:667,1
DA:668,1
DA:669,1
DA:670,1
DA:671,1
DA:672,1
DA:673,1
DA:674,1
DA:675,1
DA:676,1
DA:677,1
DA:678,1
DA:679,1
DA:680,1
DA:681,1
DA:682,1
DA:683,1
DA:686,1
DA:687,1
DA:688,0
DA:691,1
DA:698,1
DA:699,0
DA:702,1
DA:710,1
DA:711,0
DA:713,1
DA:716,1
DA:717,1
DA:718,1
DA:719,1
DA:720,1
DA:721,1
DA:722,1
DA:723,1
DA:724,1
DA:725,1
DA:726,1
DA:727,1
DA:728,1
DA:729,1
DA:730,1
DA:731,1
DA:732,1
DA:733,1
DA:734,1
DA:737,1
DA:738,1
DA:739,0
DA:742,1
DA:745,1
DA:746,1
DA:747,0
DA:750,1
DA:751,1
DA:752,0
DA:755,1
DA:756,1
DA:757,0
DA:759,1
DA:762,1
DA:763,1
DA:764,1
DA:765,1
DA:766,1
DA:767,1
DA:768,1
DA:769,1
DA:770,1
DA:771,1
DA:772,1
DA:773,1
DA:774,1
DA:775,1
DA:776,1
DA:777,1
DA:778,1
DA:779,1
DA:780,1
DA:783,1
DA:784,1
DA:785,0
DA:788,1
DA:789,1
DA:790,0
DA:793,1
DA:794,1
DA:795,0
DA:798,1
DA:799,1
DA:800,0
DA:803,1
DA:804,1
DA:805,0
DA:808,1
DA:809,1
DA:810,0
DA:812,1
DA:815,1
DA:816,1
DA:817,1
DA:818,1
DA:819,1
DA:820,1
DA:821,1
DA:822,1
DA:823,1
DA:824,1
DA:825,1
DA:826,1
DA:827,1
DA:828,1
DA:829,1
DA:830,1
DA:831,1
DA:832,1
DA:833,1
DA:834,1
DA:835,1
DA:836,1
DA:837,1
DA:838,1
DA:839,1
DA:840,1
DA:843,1
DA:848,1
DA:849,0
DA:852,1
DA:857,1
DA:858,0
DA:861,1
DA:866,1
DA:867,0
DA:870,1
DA:875,1
DA:876,0
DA:878,1
DA:881,1
DA:882,1
DA:883,1
DA:884,1
DA:885,1
DA:886,1
DA:887,1
DA:888,1
DA:889,1
DA:890,1
DA:891,1
DA:892,1
DA:893,1
DA:894,1
DA:895,1
DA:896,1
DA:897,1
DA:898,1
DA:899,1
DA:900,1
DA:901,1
DA:902,1
DA:903,1
DA:904,1
DA:905,1
DA:906,1
DA:907,1
DA:908,1
DA:909,1
DA:910,1
DA:911,1
DA:912,1
DA:913,1
DA:914,1
DA:915,1
DA:916,1
DA:917,1
DA:918,1
DA:919,1
DA:920,1
DA:921,1
DA:922,1
DA:925,1
DA:928,1
DA:929,1
DA:930,0
DA:933,1
DA:937,1
DA:938,1
DA:939,0
DA:942,1
DA:945,1
DA:946,1
DA:947,0
DA:950,1
DA:954,1
DA:955,0
DA:957,1
DA:960,1
DA:961,1
DA:962,1
DA:963,1
DA:964,1
DA:965,1
DA:966,1
DA:967,1
DA:968,1
DA:969,1
DA:970,1
DA:971,1
DA:972,1
DA:973,1
DA:974,1
DA:975,1
DA:976,1
DA:977,1
DA:978,1
DA:979,1
DA:980,1
DA:981,1
DA:982,1
DA:983,1
DA:984,1
DA:985,1
DA:986,1
DA:987,1
DA:988,1
DA:989,1
DA:990,1
DA:991,1
DA:992,1
DA:993,1
DA:994,1
DA:995,1
DA:996,1
DA:999,1
DA:1002,1
DA:1003,1
DA:1004,0
DA:1006,1
DA:1009,1
DA:1010,1
DA:1011,1
DA:1012,1
DA:1013,1
DA:1014,1
DA:1015,1
DA:1016,1
DA:1017,1
DA:1018,1
DA:1019,1
DA:1020,1
DA:1021,1
DA:1022,1
DA:1023,1
DA:1024,1
DA:1025,1
DA:1026,1
DA:1027,1
DA:1028,1
DA:1029,1
DA:1030,1
DA:1031,1
DA:1032,1
DA:1033,1
DA:1034,1
DA:1035,1
DA:1036,1
DA:1037,1
DA:1038,1
DA:1039,1
DA:1040,1
DA:1041,1
DA:1042,1
DA:1043,1
DA:1044,1
DA:1045,1
DA:1046,1
DA:1047,1
DA:1048,1
DA:1049,1
DA:1052,1
DA:1056,1
DA:1057,1
DA:1058,1
DA:1059,0
DA:1062,1
DA:1068,1
DA:1069,0
DA:1071,1
DA:1074,1
DA:1075,1
DA:1076,1
DA:1077,1
DA:1078,1
DA:1080,1
DA:1081,1
DA:1082,1
DA:1084,1
DA:1085,1
DA:1086,1
DA:1088,1
DA:1089,1
DA:1090,1
DA:1092,1
DA:1093,1
DA:1094,1
DA:1096,1
DA:1097,1
DA:1098,1
DA:1099,1
DA:1102,1
DA:1103,1
DA:1104,1
DA:1105,1
DA:1106,1
DA:1107,1
DA:1108,1
DA:1109,1
DA:1113,1
DA:1114,0
DA:1117,1
DA:1118,1
DA:1119,1
DA:1120,1
DA:1121,1
DA:1122,1
DA:1126,1
DA:1127,0
DA:1131,1
DA:1132,1
DA:1133,1
DA:1134,1
DA:1135,1
DA:1137,1
DA:1138,1
DA:1139,1
DA:1140,1
DA:1141,1
DA:1144,1
DA:1145,1
DA:1146,1
DA:1147,1
DA:1148,1
DA:1149,1
DA:1152,1
DA:1153,1
DA:1154,1
DA:1155,1
DA:1156,1
DA:1157,1
DA:1158,1
DA:1159,1
DA:1160,1
DA:1163,1
DA:1164,1
DA:1165,1
DA:1166,1
DA:1167,1
DA:1168,1
DA:1169,1
DA:1172,1
DA:1173,1
DA:1174,1
DA:1175,1
DA:1176,1
DA:1177,1
DA:1178,1
DA:1179,1
DA:1182,1
DA:1183,1
DA:1184,1
DA:1185,1
DA:1186,1
DA:1187,1
DA:1188,1
DA:1189,1
DA:1190,1
DA:1191,1
DA:1192,1
DA:1195,1
DA:1196,1
DA:1197,1
DA:1198,1
DA:1199,1
DA:1200,1
DA:1201,1
DA:1202,1
DA:1203,1
DA:1204,1
DA:1205,1
DA:1206,1
DA:1207,1
DA:1209,1
DA:1210,1
DA:1211,1
DA:1212,1
DA:1213,1
DA:1214,1
DA:1215,1
DA:1216,1
DA:1217,1
DA:1218,1
DA:1219,1
DA:1220,1
DA:1221,1
DA:1224,1
DA:1225,1
DA:1226,1
DA:1227,1
DA:1228,1
DA:1229,1
DA:1230,1
DA:1234,1
DA:1235,0
DA:1237,1
DA:1240,1
DA:1241,1
DA:1242,1
DA:1243,1
DA:1244,1
DA:1245,1
DA:1248,1
DA:1249,1
DA:1250,1
DA:1251,1
DA:1254,1
DA:1255,1
DA:1256,1
DA:1257,1
DA:1260,1
DA:1261,1
DA:1262,1
DA:1263,1
DA:1264,1
DA:1267,1
DA:1268,1
DA:1269,1
DA:1270,1
DA:1271,1
DA:1272,1
DA:1273,1
DA:1274,1
DA:1275,1
DA:1276,1
DA:1277,1
DA:1278,1
DA:1279,1
DA:1280,1
DA:1281,1
DA:1284,1
DA:1285,1
DA:1288,1
DA:1289,1
DA:1290,1
DA:1291,1
DA:1292,1
DA:1293,1
DA:1294,1
DA:1295,1
DA:1296,1
DA:1297,1
DA:1300,1
DA:1301,1
DA:1302,1
DA:1303,1
DA:1304,1
DA:1305,1
DA:1308,1
DA:1309,1
DA:1310,1
DA:1313,1
DA:1314,1
DA:1315,1
DA:1316,1
DA:1317,1
DA:1320,1
DA:1321,1
DA:1322,1
DA:1323,1
DA:1324,1
DA:1325,1
DA:1326,1
DA:1327,1
DA:1330,1
DA:1331,1
DA:1332,1
DA:1333,1
DA:1334,1
DA:1335,1
DA:1336,1
DA:1337,1
DA:1338,1
DA:1339,1
DA:1341,1
DA:1342,1
DA:1343,1
DA:1346,1
DA:1347,1
DA:1348,1
DA:1349,1
DA:1350,1
DA:1351,1
DA:1352,1
DA:1353,1
DA:1354,1
DA:1355,1
DA:1356,1
DA:1359,1
DA:1360,1
DA:1361,1
DA:1362,1
DA:1363,1
DA:1364,1
DA:1365,1
DA:1366,1
DA:1367,1
DA:1370,1
DA:1371,1
DA:1372,1
DA:1373,1
DA:1374,1
DA:1377,1
DA:1378,1
DA:1379,1
DA:1380,1
DA:1381,1
DA:1382,1
DA:1383,1
DA:1384,1
DA:1385,1
DA:1388,1
DA:1389,1
DA:1390,1
DA:1391,1
DA:1392,1
DA:1393,1
DA:1396,1
DA:1397,1
DA:1398,1
DA:1399,1
DA:1400,1
DA:1403,1
DA:1404,1
DA:1407,1
DA:1408,1
DA:1411,1
DA:1412,1
DA:1413,1
DA:1416,1
DA:1417,1
DA:1418,1
DA:1419,1
DA:1420,1
DA:1421,1
DA:1422,1
DA:1423,1
DA:1424,1
DA:1425,1
DA:1426,1
DA:1427,1
DA:1428,1
DA:1429,1
DA:1430,1
DA:1432,8
DA:1433,7
DA:1434,7
DA:1436,1
DA:1439,1
DA:1440,1
DA:1441,1
DA:1442,1
DA:1443,1
DA:1444,1
DA:1445,1
DA:1446,1
DA:1447,1
DA:1448,1
DA:1449,1
DA:1450,1
DA:1451,1
DA:1452,1
DA:1453,1
DA:1454,1
DA:1455,1
DA:1456,1
DA:1457,1
DA:1458,1
DA:1459,1
DA:1460,1
DA:1461,1
DA:1462,1
DA:1463,1
DA:1464,1
DA:1465,1
DA:1466,1
DA:1467,1
DA:1468,1
DA:1469,1
DA:1470,1
DA:1471,1
DA:1472,1
DA:1473,1
DA:1474,1
DA:1475,1
DA:1476,1
DA:1477,1
DA:1478,1
DA:1479,1
DA:1480,1
DA:1481,1
DA:1482,1
DA:1483,1
DA:1484,1
DA:1485,1
DA:1486,1
DA:1487,1
DA:1488,1
DA:1489,1
DA:1490,1
DA:1491,1
DA:1492,1
DA:1495,1
DA:1499,1
DA:1500,1
DA:1501,1
DA:1502,0
DA:1504,0
DA:1507,1
DA:1511,1
DA:1512,1
DA:1513,1
DA:1514,0
DA:1516,0
DA:1519,1
DA:1524,1
DA:1525,0
DA:1527,1
DA:1530,1
DA:1531,1
DA:1532,1
DA:1533,1
DA:1534,1
DA:1535,1
DA:1536,1
DA:1537,1
DA:1538,1
DA:1539,1
DA:1540,1
DA:1541,1
DA:1542,1
DA:1543,1
DA:1544,1
DA:1545,1
DA:1546,1
DA:1547,1
DA:1548,1
DA:1549,1
DA:1550,1
DA:1551,1
DA:1552,1
DA:1553,1
DA:1554,1
DA:1555,1
DA:1558,1
DA:1562,1
DA:1563,1
DA:1564,1
DA:1565,0
DA:1567,0
DA:1570,1
DA:1575,1
DA:1576,0
DA:1578,1
DA:1581,1
DA:1582,1
DA:1583,1
DA:1584,1
DA:1585,1
DA:1586,1
DA:1587,1
DA:1588,1
DA:1591,1
DA:1592,1
DA:1593,1
DA:1594,1
DA:1595,1
DA:1596,1
DA:1597,1
DA:1598,1
DA:1599,1
DA:1600,1
DA:1601,1
DA:1602,1
DA:1603,1
DA:1606,1
DA:1607,1
DA:1608,1
DA:1609,1
DA:1610,1
DA:1611,1
DA:1612,1
DA:1615,1
DA:1616,1
DA:1617,1
DA:1618,1
DA:1619,1
DA:1620,1
DA:1623,1
DA:1624,1
DA:1625,1
DA:1626,1
DA:1627,1
DA:1628,1
DA:1629,1
DA:1630,1
DA:1633,1
DA:1634,1
DA:1635,1
DA:1636,1
DA:1637,1
DA:1638,1
DA:1639,1
DA:1640,1
DA:1641,1
DA:1644,1
DA:1645,1
DA:1646,1
DA:1647,1
DA:1648,1
DA:1649,1
DA:1650,1
DA:1651,1
DA:1652,1
DA:1653,1
DA:1654,1
DA:1655,1
DA:1656,1
DA:1657,1
DA:1658,1
DA:1659,1
DA:1660,1
DA:1661,1
DA:1662,1
DA:1663,1
DA:1664,1
DA:1665,1
DA:1666,1
DA:1669,1
DA:1670,1
DA:1671,1
DA:1672,1
DA:1673,1
DA:1674,1
DA:1675,1
DA:1676,1
DA:1677,1
DA:1678,1
DA:1679,1
DA:1680,1
DA:1681,1
DA:1682,1
DA:1683,1
DA:1684,1
DA:1685,1
DA:1686,1
DA:1687,1
DA:1688,1
DA:1689,1
DA:1690,1
DA:1691,1
DA:1692,1
DA:1693,1
DA:1694,1
DA:1695,1
DA:1696,1
DA:1697,1
DA:1698,1
DA:1699,1
DA:1700,1
DA:1701,1
DA:1702,1
DA:1703,1
DA:1704,1
DA:1705,1
DA:1706,1
DA:1707,1
DA:1708,1
DA:1709,1
DA:1710,1
DA:1711,1
DA:1712,1
DA:1713,1
DA:1714,1
DA:1715,1
DA:1716,1
DA:1717,1
DA:1718,1
DA:1721,1
DA:1722,1
DA:1723,1
DA:1724,1
DA:1725,1
DA:1726,1
DA:1727,1
DA:1728,1
DA:1729,1
DA:1730,1
DA:1733,1
DA:1734,1
DA:1735,1
DA:1736,1
DA:1737,1
DA:1738,1
DA:1739,1
DA:1740,1
DA:1741,1
DA:1742,1
DA:1745,1
DA:1746,1
DA:1747,1
DA:1748,1
DA:1749,1
DA:1750,1
DA:1751,1
DA:1752,1
DA:1753,1
DA:1754,1
DA:1755,1
DA:1756,1
DA:1757,1
DA:1758,1
DA:1759,1
DA:1760,1
DA:1761,1
DA:1762,1
DA:1763,1
DA:1764,1
DA:1765,1
DA:1766,1
DA:1767,1
DA:1768,1
DA:1769,1
DA:1770,1
DA:1772,23
DA:1773,22
DA:1774,22
DA:1775,22
DA:1776,22
DA:1777,0
DA:1781,1
BRF:0
BRH:0
LF:1181
LH:1066
end_of_record
SF:/home/lonless/rust-projects/barks/core/src/logical_plan.rs
FN:2442,_RNCNCNvXININtCsleJ6uViwJwk_10barks_core12logical_plansk_0pENtNtB9_12serializable15TableDefinitionINtNtCs54tgE0qq4eT_4core7convert4FromINtB9_15TableDefinitionpEE4froms_00Bb_
FN:2419,_RNCNvXININtCsleJ6uViwJwk_10barks_core12logical_plansj_0pENtNtB7_12serializable5WriteINtNtCs54tgE0qq4eT_4core7convert4FromINtB7_5WritepEE4from0B9_
FN:2432,_RNCNvXININtCsleJ6uViwJwk_10barks_core12logical_plansk_0pENtNtB7_12serializable15TableDefinitionINtNtCs54tgE0qq4eT_4core7convert4FromINtB7_15TableDefinitionpEE4from0B9_
FN:2448,_RNCNvXININtCsleJ6uViwJwk_10barks_core12logical_plansk_0pENtNtB7_12serializable15TableDefinitionINtNtCs54tgE0qq4eT_4core7convert4FromINtB7_15TableDefinitionpEE4froms0_0B9_
FN:2442,_RNCNvXININtCsleJ6uViwJwk_10barks_core12logical_plansk_0pENtNtB7_12serializable15TableDefinitionINtNtCs54tgE0qq4eT_4core7convert4FromINtB7_15TableDefinitionpEE4froms_0B9_
FN:2847,_RNCNvXININtCsleJ6uViwJwk_10barks_core12logical_plansn_0pENtNtB7_12serializable11CommandNodeINtNtCs54tgE0qq4eT_4core7convert4FromINtB7_11CommandNodepEE4from0B9_
FN:2948,_RNCNvXININtCsleJ6uViwJwk_10barks_core12logical_plansn_0pENtNtB7_12serializable11CommandNodeINtNtCs54tgE0qq4eT_4core7convert4FromINtB7_11CommandNodepEE4froms_0B9_
FN:2145,_RNvXININtCsleJ6uViwJwk_10barks_core12logical_plans1_0pENtNtB5_12serializable4PlanINtNtCs54tgE0qq4eT_4core7convert4FromINtB5_4PlanpEE4fromB7_
FN:2165,_RNvXININtCsleJ6uViwJwk_10barks_core12logical_plans3_0pENtNtB5_12serializable11CommandPlanINtNtCs54tgE0qq4eT_4core7convert4FromINtB5_11CommandPlanpEE4fromB7_
FN:2408,_RNvXININtCsleJ6uViwJwk_10barks_core12logical_plansj_0pENtNtB5_12serializable5WriteINtNtCs54tgE0qq4eT_4core7convert4FromINtB5_5WritepEE4fromB7_
FN:2425,_RNvXININtCsleJ6uViwJwk_10barks_core12logical_plansk_0pENtNtB5_12serializable15TableDefinitionINtNtCs54tgE0qq4eT_4core7convert4FromINtB5_15TableDefinitionpEE4fromB7_
FN:2455,_RNvXININtCsleJ6uViwJwk_10barks_core12logical_plansl_0pENtNtB5_12serializable14ViewDefinitionINtNtCs54tgE0qq4eT_4core7convert4FromINtB5_14ViewDefinitionpEE4fromB7_
FN:2776,_RNvXININtCsleJ6uViwJwk_10barks_core12logical_plansn_0pENtNtB5_12serializable11CommandNodeINtNtCs54tgE0qq4eT_4core7convert4FromINtB5_11CommandNodepEE4fromB7_
FN:1570,_RNvNtNtCsleJ6uViwJwk_10barks_core12logical_plan5testss_14test_plan_enum
FN:1890,_RNvNtNtCsleJ6uViwJwk_10barks_core12logical_plan5testss_15test_save_modes
FN:1907,_RNvNtNtCsleJ6uViwJwk_10barks_core12logical_plan5testss_18test_parse_formats
FN:1647,_RNvNtNtCsleJ6uViwJwk_10barks_core12logical_plan5testss_20test_query_node_join
FN:1722,_RNvNtNtCsleJ6uViwJwk_10barks_core12logical_plan5testss_20test_query_node_sort
FN:2100,_RNvNtNtCsleJ6uViwJwk_10barks_core12logical_plan5testss_21test_query_node_empty
FN:1763,_RNvNtNtCsleJ6uViwJwk_10barks_core12logical_plan5testss_21test_query_node_limit
FN:1620,_RNvNtNtCsleJ6uViwJwk_10barks_core12logical_plan5testss_22test_query_node_filter
FN:1988,_RNvNtNtCsleJ6uViwJwk_10barks_core12logical_plan5testss_22test_query_node_sample
FN:2114,_RNvNtNtCsleJ6uViwJwk_10barks_core12logical_plan5testss_22test_query_node_values
FN:1789,_RNvNtNtCsleJ6uViwJwk_10barks_core12logical_plan5testss_22test_serializable_plan
FN:1594,_RNvNtNtCsleJ6uViwJwk_10barks_core12logical_plan5testss_23test_query_node_project
FN:1530,_RNvNtNtCsleJ6uViwJwk_10barks_core12logical_plan5testss_24test_query_plan_creation
FN:1878,_RNvNtNtCsleJ6uViwJwk_10barks_core12logical_plan5testss_24test_set_operation_types
FN:1688,_RNvNtNtCsleJ6uViwJwk_10barks_core12logical_plan5testss_25test_query_node_aggregate
FN:1555,_RNvNtNtCsleJ6uViwJwk_10barks_core12logical_plan5testss_26test_command_plan_creation
FN:1940,_RNvNtNtCsleJ6uViwJwk_10barks_core12logical_plan5testss_27test_fraction_serialization
FN:1850,_RNvNtNtCsleJ6uViwJwk_10barks_core12logical_plan5testss_27test_join_criteria_variants
FN:2018,_RNvNtNtCsleJ6uViwJwk_10barks_core12logical_plan5testss_27test_query_node_deduplicate
FN:2047,_RNvNtNtCsleJ6uViwJwk_10barks_core12logical_plan5testss_27test_query_node_repartition
FN:1827,_RNvNtNtCsleJ6uViwJwk_10barks_core12logical_plan5testss_27test_storage_level_from_str
FN:1924,_RNvNtNtCsleJ6uViwJwk_10barks_core12logical_plan5testss_28test_bucket_by_serialization
FN:1805,_RNvNtNtCsleJ6uViwJwk_10barks_core12logical_plan5testss_28test_join_type_serialization
FN:1971,_RNvNtNtCsleJ6uViwJwk_10barks_core12logical_plan5testss_30test_query_node_local_relation
FN:2073,_RNvNtNtCsleJ6uViwJwk_10barks_core12logical_plan5testss_30test_query_node_subquery_alias
FN:1957,_RNvNtNtCsleJ6uViwJwk_10barks_core12logical_plan5testss_30test_replacement_serialization
FN:32,_RNvMNtCsleJ6uViwJwk_10barks_core12logical_planNtB2_9QueryPlan3new
FN:50,_RNvMs_NtCsleJ6uViwJwk_10barks_core12logical_planNtB4_11CommandPlan3new
FN:806,_RNvXs0_NtCsleJ6uViwJwk_10barks_core12logical_planNtB5_12StorageLevelNtNtNtCs54tgE0qq4eT_4core3str6traits7FromStr8from_str
FN:2291,_RNCNCNvXsc_NtCsleJ6uViwJwk_10barks_core12logical_planNtNtB9_12serializable7UnpivotINtNtCs54tgE0qq4eT_4core7convert4FromNtB9_7UnpivotE4from00Bb_
FN:2193,_RNCNvXs4_NtCsleJ6uViwJwk_10barks_core12logical_planNtNtB7_12serializable8ReadTypeINtNtCs54tgE0qq4eT_4core7convert4FromNtB7_8ReadTypeE4from0B9_
FN:2196,_RNCNvXs4_NtCsleJ6uViwJwk_10barks_core12logical_planNtNtB7_12serializable8ReadTypeINtNtCs54tgE0qq4eT_4core7convert4FromNtB7_8ReadTypeE4froms_0B9_
FN:2208,_RNCNvXs5_NtCsleJ6uViwJwk_10barks_core12logical_planNtNtB7_12serializable4JoinINtNtCs54tgE0qq4eT_4core7convert4FromNtB7_4JoinE4from0B9_
FN:2241,_RNCNvXs8_NtCsleJ6uViwJwk_10barks_core12logical_planNtNtB7_12serializable9AggregateINtNtCs54tgE0qq4eT_4core7convert4FromNtB7_9AggregateE4from0B9_
FN:2243,_RNCNvXs8_NtCsleJ6uViwJwk_10barks_core12logical_planNtNtB7_12serializable9AggregateINtNtCs54tgE0qq4eT_4core7convert4FromNtB7_9AggregateE4froms0_0B9_
FN:2242,_RNCNvXs8_NtCsleJ6uViwJwk_10barks_core12logical_planNtNtB7_12serializable9AggregateINtNtCs54tgE0qq4eT_4core7convert4FromNtB7_9AggregateE4froms_0B9_
FN:2277,_RNCNvXsb_NtCsleJ6uViwJwk_10barks_core12logical_planNtNtB7_12serializable5PivotINtNtCs54tgE0qq4eT_4core7convert4FromNtB7_5PivotE4from0B9_
FN:2279,_RNCNvXsb_NtCsleJ6uViwJwk_10barks_core12logical_planNtNtB7_12serializable5PivotINtNtCs54tgE0qq4eT_4core7convert4FromNtB7_5PivotE4froms0_0B9_
FN:2278,_RNCNvXsb_NtCsleJ6uViwJwk_10barks_core12logical_planNtNtB7_12serializable5PivotINtNtCs54tgE0qq4eT_4core7convert4FromNtB7_5PivotE4froms_0B9_
FN:2291,_RNCNvXsc_NtCsleJ6uViwJwk_10barks_core12logical_planNtNtB7_12serializable7UnpivotINtNtCs54tgE0qq4eT_4core7convert4FromNtB7_7UnpivotE4from0B9_
FN:2292,_RNCNvXsc_NtCsleJ6uViwJwk_10barks_core12logical_planNtNtB7_12serializable7UnpivotINtNtCs54tgE0qq4eT_4core7convert4FromNtB7_7UnpivotE4froms_0B9_
FN:2303,_RNCNvXsd_NtCsleJ6uViwJwk_10barks_core12logical_planNtNtB7_12serializable12UnpivotValueINtNtCs54tgE0qq4eT_4core7convert4FromNtB7_12UnpivotValueE4from0B9_
FN:2314,_RNCNvXse_NtCsleJ6uViwJwk_10barks_core12logical_planNtNtB7_12serializable5ParseINtNtCs54tgE0qq4eT_4core7convert4FromNtB7_5ParseE4from0B9_
FN:2327,_RNCNvXsf_NtCsleJ6uViwJwk_10barks_core12logical_planNtNtB7_12serializable8GroupMapINtNtCs54tgE0qq4eT_4core7convert4FromNtB7_8GroupMapE4from0B9_
FN:2335,_RNCNvXsf_NtCsleJ6uViwJwk_10barks_core12logical_planNtNtB7_12serializable8GroupMapINtNtCs54tgE0qq4eT_4core7convert4FromNtB7_8GroupMapE4froms0_0B9_
FN:2339,_RNCNvXsf_NtCsleJ6uViwJwk_10barks_core12logical_planNtNtB7_12serializable8GroupMapINtNtCs54tgE0qq4eT_4core7convert4FromNtB7_8GroupMapE4froms1_0B9_
FN:2344,_RNCNvXsf_NtCsleJ6uViwJwk_10barks_core12logical_planNtNtB7_12serializable8GroupMapINtNtCs54tgE0qq4eT_4core7convert4FromNtB7_8GroupMapE4froms2_0B9_
FN:2333,_RNCNvXsf_NtCsleJ6uViwJwk_10barks_core12logical_planNtNtB7_12serializable8GroupMapINtNtCs54tgE0qq4eT_4core7convert4FromNtB7_8GroupMapE4froms_0B9_
FN:2356,_RNCNvXsg_NtCsleJ6uViwJwk_10barks_core12logical_planNtNtB7_12serializable10CoGroupMapINtNtCs54tgE0qq4eT_4core7convert4FromNtB7_10CoGroupMapE4from0B9_
FN:2368,_RNCNvXsg_NtCsleJ6uViwJwk_10barks_core12logical_planNtNtB7_12serializable10CoGroupMapINtNtCs54tgE0qq4eT_4core7convert4FromNtB7_10CoGroupMapE4froms0_0B9_
FN:2373,_RNCNvXsg_NtCsleJ6uViwJwk_10barks_core12logical_planNtNtB7_12serializable10CoGroupMapINtNtCs54tgE0qq4eT_4core7convert4FromNtB7_10CoGroupMapE4froms1_0B9_
FN:2362,_RNCNvXsg_NtCsleJ6uViwJwk_10barks_core12logical_planNtNtB7_12serializable10CoGroupMapINtNtCs54tgE0qq4eT_4core7convert4FromNtB7_10CoGroupMapE4froms_0B9_
FN:2396,_RNCNvXsi_NtCsleJ6uViwJwk_10barks_core12logical_planNtNtB7_12serializable22ApplyInPandasWithStateINtNtCs54tgE0qq4eT_4core7convert4FromNtB7_22ApplyInPandasWithStateE4from0B9_
FN:2478,_RNCNvXsm_NtCsleJ6uViwJwk_10barks_core12logical_planNtNtB7_12serializable9QueryNodeINtNtCs54tgE0qq4eT_4core7convert4FromNtB7_9QueryNodeE4from0B9_
FN:2723,_RNCNvXsm_NtCsleJ6uViwJwk_10barks_core12logical_planNtNtB7_12serializable9QueryNodeINtNtCs54tgE0qq4eT_4core7convert4FromNtB7_9QueryNodeE4froms0_0B9_
FN:2729,_RNCNvXsm_NtCsleJ6uViwJwk_10barks_core12logical_planNtNtB7_12serializable9QueryNodeINtNtCs54tgE0qq4eT_4core7convert4FromNtB7_9QueryNodeE4froms1_0B9_
FN:2748,_RNCNvXsm_NtCsleJ6uViwJwk_10barks_core12logical_planNtNtB7_12serializable9QueryNodeINtNtCs54tgE0qq4eT_4core7convert4FromNtB7_9QueryNodeE4froms2_0B9_
FN:2759,_RNCNvXsm_NtCsleJ6uViwJwk_10barks_core12logical_planNtNtB7_12serializable9QueryNodeINtNtCs54tgE0qq4eT_4core7convert4FromNtB7_9QueryNodeE4froms3_0B9_
FN:2764,_RNCNvXsm_NtCsleJ6uViwJwk_10barks_core12logical_planNtNtB7_12serializable9QueryNodeINtNtCs54tgE0qq4eT_4core7convert4FromNtB7_9QueryNodeE4froms4_0B9_
FN:2504,_RNCNvXsm_NtCsleJ6uViwJwk_10barks_core12logical_planNtNtB7_12serializable9QueryNodeINtNtCs54tgE0qq4eT_4core7convert4FromNtB7_9QueryNodeE4froms_0B9_
FN:2155,_RNvXs2_NtCsleJ6uViwJwk_10barks_core12logical_planNtNtB5_12serializable9QueryPlanINtNtCs54tgE0qq4eT_4core7convert4FromNtB5_9QueryPlanE4fromB7_
FN:2176,_RNvXs4_NtCsleJ6uViwJwk_10barks_core12logical_planNtNtB5_12serializable8ReadTypeINtNtCs54tgE0qq4eT_4core7convert4FromNtB5_8ReadTypeE4fromB7_
FN:2203,_RNvXs5_NtCsleJ6uViwJwk_10barks_core12logical_planNtNtB5_12serializable4JoinINtNtCs54tgE0qq4eT_4core7convert4FromNtB5_4JoinE4fromB7_
FN:2215,_RNvXs6_NtCsleJ6uViwJwk_10barks_core12logical_planNtNtB5_12serializable12JoinCriteriaINtNtCs54tgE0qq4eT_4core7convert4FromNtB5_12JoinCriteriaE4fromB7_
FN:2225,_RNvXs7_NtCsleJ6uViwJwk_10barks_core12logical_planNtNtB5_12serializable12SetOperationINtNtCs54tgE0qq4eT_4core7convert4FromNtB5_12SetOperationE4fromB7_
FN:2238,_RNvXs8_NtCsleJ6uViwJwk_10barks_core12logical_planNtNtB5_12serializable9AggregateINtNtCs54tgE0qq4eT_4core7convert4FromNtB5_9AggregateE4fromB7_
FN:2250,_RNvXs9_NtCsleJ6uViwJwk_10barks_core12logical_planNtNtB5_12serializable6SampleINtNtCs54tgE0qq4eT_4core7convert4FromNtB5_6SampleE4fromB7_
FN:2263,_RNvXsa_NtCsleJ6uViwJwk_10barks_core12logical_planNtNtB5_12serializable11DeduplicateINtNtCs54tgE0qq4eT_4core7convert4FromNtB5_11DeduplicateE4fromB7_
FN:2274,_RNvXsb_NtCsleJ6uViwJwk_10barks_core12logical_planNtNtB5_12serializable5PivotINtNtCs54tgE0qq4eT_4core7convert4FromNtB5_5PivotE4fromB7_
FN:2286,_RNvXsc_NtCsleJ6uViwJwk_10barks_core12logical_planNtNtB5_12serializable7UnpivotINtNtCs54tgE0qq4eT_4core7convert4FromNtB5_7UnpivotE4fromB7_
FN:2301,_RNvXsd_NtCsleJ6uViwJwk_10barks_core12logical_planNtNtB5_12serializable12UnpivotValueINtNtCs54tgE0qq4eT_4core7convert4FromNtB5_12UnpivotValueE4fromB7_
FN:2310,_RNvXse_NtCsleJ6uViwJwk_10barks_core12logical_planNtNtB5_12serializable5ParseINtNtCs54tgE0qq4eT_4core7convert4FromNtB5_5ParseE4fromB7_
FN:2321,_RNvXsf_NtCsleJ6uViwJwk_10barks_core12logical_planNtNtB5_12serializable8GroupMapINtNtCs54tgE0qq4eT_4core7convert4FromNtB5_8GroupMapE4fromB7_
FN:2350,_RNvXsg_NtCsleJ6uViwJwk_10barks_core12logical_planNtNtB5_12serializable10CoGroupMapINtNtCs54tgE0qq4eT_4core7convert4FromNtB5_10CoGroupMapE4fromB7_
FN:2380,_RNvXsh_NtCsleJ6uViwJwk_10barks_core12logical_planNtNtB5_12serializable13WithWatermarkINtNtCs54tgE0qq4eT_4core7convert4FromNtB5_13WithWatermarkE4fromB7_
FN:2390,_RNvXsi_NtCsleJ6uViwJwk_10barks_core12logical_planNtNtB5_12serializable22ApplyInPandasWithStateINtNtCs54tgE0qq4eT_4core7convert4FromNtB5_22ApplyInPandasWithStateE4fromB7_
FN:2468,_RNvXsm_NtCsleJ6uViwJwk_10barks_core12logical_planNtNtB5_12serializable9QueryNodeINtNtCs54tgE0qq4eT_4core7convert4FromNtB5_9QueryNodeE4fromB7_
FNDA:0,_RNCNCNvXININtCsleJ6uViwJwk_10barks_core12logical_plansk_0pENtNtB9_12serializable15TableDefinitionINtNtCs54tgE0qq4eT_4core7convert4FromINtB9_15TableDefinitionpEE4froms_00Bb_
FNDA:0,_RNCNvXININtCsleJ6uViwJwk_10barks_core12logical_plansj_0pENtNtB7_12serializable5WriteINtNtCs54tgE0qq4eT_4core7convert4FromINtB7_5WritepEE4from0B9_
FNDA:0,_RNCNvXININtCsleJ6uViwJwk_10barks_core12logical_plansk_0pENtNtB7_12serializable15TableDefinitionINtNtCs54tgE0qq4eT_4core7convert4FromINtB7_15TableDefinitionpEE4from0B9_
FNDA:0,_RNCNvXININtCsleJ6uViwJwk_10barks_core12logical_plansk_0pENtNtB7_12serializable15TableDefinitionINtNtCs54tgE0qq4eT_4core7convert4FromINtB7_15TableDefinitionpEE4froms0_0B9_
FNDA:0,_RNCNvXININtCsleJ6uViwJwk_10barks_core12logical_plansk_0pENtNtB7_12serializable15TableDefinitionINtNtCs54tgE0qq4eT_4core7convert4FromINtB7_15TableDefinitionpEE4froms_0B9_
FNDA:0,_RNCNvXININtCsleJ6uViwJwk_10barks_core12logical_plansn_0pENtNtB7_12serializable11CommandNodeINtNtCs54tgE0qq4eT_4core7convert4FromINtB7_11CommandNodepEE4from0B9_
FNDA:0,_RNCNvXININtCsleJ6uViwJwk_10barks_core12logical_plansn_0pENtNtB7_12serializable11CommandNodeINtNtCs54tgE0qq4eT_4core7convert4FromINtB7_11CommandNodepEE4froms_0B9_
FNDA:0,_RNvXININtCsleJ6uViwJwk_10barks_core12logical_plans1_0pENtNtB5_12serializable4PlanINtNtCs54tgE0qq4eT_4core7convert4FromINtB5_4PlanpEE4fromB7_
FNDA:0,_RNvXININtCsleJ6uViwJwk_10barks_core12logical_plans3_0pENtNtB5_12serializable11CommandPlanINtNtCs54tgE0qq4eT_4core7convert4FromINtB5_11CommandPlanpEE4fromB7_
FNDA:0,_RNvXININtCsleJ6uViwJwk_10barks_core12logical_plansj_0pENtNtB5_12serializable5WriteINtNtCs54tgE0qq4eT_4core7convert4FromINtB5_5WritepEE4fromB7_
FNDA:0,_RNvXININtCsleJ6uViwJwk_10barks_core12logical_plansk_0pENtNtB5_12serializable15TableDefinitionINtNtCs54tgE0qq4eT_4core7convert4FromINtB5_15TableDefinitionpEE4fromB7_
FNDA:0,_RNvXININtCsleJ6uViwJwk_10barks_core12logical_plansl_0pENtNtB5_12serializable14ViewDefinitionINtNtCs54tgE0qq4eT_4core7convert4FromINtB5_14ViewDefinitionpEE4fromB7_
FNDA:0,_RNvXININtCsleJ6uViwJwk_10barks_core12logical_plansn_0pENtNtB5_12serializable11CommandNodeINtNtCs54tgE0qq4eT_4core7convert4FromINtB5_11CommandNodepEE4fromB7_
FNDA:1,_RNvNtNtCsleJ6uViwJwk_10barks_core12logical_plan5testss_14test_plan_enum
FNDA:1,_RNvNtNtCsleJ6uViwJwk_10barks_core12logical_plan5testss_15test_save_modes
FNDA:1,_RNvNtNtCsleJ6uViwJwk_10barks_core12logical_plan5testss_18test_parse_formats
FNDA:1,_RNvNtNtCsleJ6uViwJwk_10barks_core12logical_plan5testss_20test_query_node_join
FNDA:1,_RNvNtNtCsleJ6uViwJwk_10barks_core12logical_plan5testss_20test_query_node_sort
FNDA:1,_RNvNtNtCsleJ6uViwJwk_10barks_core12logical_plan5testss_21test_query_node_empty
FNDA:1,_RNvNtNtCsleJ6uViwJwk_10barks_core12logical_plan5testss_21test_query_node_limit
FNDA:1,_RNvNtNtCsleJ6uViwJwk_10barks_core12logical_plan5testss_22test_query_node_filter
FNDA:1,_RNvNtNtCsleJ6uViwJwk_10barks_core12logical_plan5testss_22test_query_node_sample
FNDA:1,_RNvNtNtCsleJ6uViwJwk_10barks_core12logical_plan5testss_22test_query_node_values
FNDA:1,_RNvNtNtCsleJ6uViwJwk_10barks_core12logical_plan5testss_22test_serializable_plan
FNDA:1,_RNvNtNtCsleJ6uViwJwk_10barks_core12logical_plan5testss_23test_query_node_project
FNDA:1,_RNvNtNtCsleJ6uViwJwk_10barks_core12logical_plan5testss_24test_query_plan_creation
FNDA:1,_RNvNtNtCsleJ6uViwJwk_10barks_core12logical_plan5testss_24test_set_operation_types
FNDA:1,_RNvNtNtCsleJ6uViwJwk_10barks_core12logical_plan5testss_25test_query_node_aggregate
FNDA:1,_RNvNtNtCsleJ6uViwJwk_10barks_core12logical_plan5testss_26test_command_plan_creation
FNDA:1,_RNvNtNtCsleJ6uViwJwk_10barks_core12logical_plan5testss_27test_fraction_serialization
FNDA:1,_RNvNtNtCsleJ6uViwJwk_10barks_core12logical_plan5testss_27test_join_criteria_variants
FNDA:1,_RNvNtNtCsleJ6uViwJwk_10barks_core12logical_plan5testss_27test_query_node_deduplicate
FNDA:1,_RNvNtNtCsleJ6uViwJwk_10barks_core12logical_plan5testss_27test_query_node_repartition
FNDA:1,_RNvNtNtCsleJ6uViwJwk_10barks_core12logical_plan5testss_27test_storage_level_from_str
FNDA:1,_RNvNtNtCsleJ6uViwJwk_10barks_core12logical_plan5testss_28test_bucket_by_serialization
FNDA:1,_RNvNtNtCsleJ6uViwJwk_10barks_core12logical_plan5testss_28test_join_type_serialization
FNDA:1,_RNvNtNtCsleJ6uViwJwk_10barks_core12logical_plan5testss_30test_query_node_local_relation
FNDA:1,_RNvNtNtCsleJ6uViwJwk_10barks_core12logical_plan5testss_30test_query_node_subquery_alias
FNDA:1,_RNvNtNtCsleJ6uViwJwk_10barks_core12logical_plan5testss_30test_replacement_serialization
FNDA:14,_RNvMNtCsleJ6uViwJwk_10barks_core12logical_planNtB2_9QueryPlan3new
FNDA:1,_RNvMs_NtCsleJ6uViwJwk_10barks_core12logical_planNtB4_11CommandPlan3new
FNDA:2,_RNvXs0_NtCsleJ6uViwJwk_10barks_core12logical_planNtB5_12StorageLevelNtNtNtCs54tgE0qq4eT_4core3str6traits7FromStr8from_str
FNDA:0,_RNCNCNvXsc_NtCsleJ6uViwJwk_10barks_core12logical_planNtNtB9_12serializable7UnpivotINtNtCs54tgE0qq4eT_4core7convert4FromNtB9_7UnpivotE4from00Bb_
FNDA:0,_RNCNvXs4_NtCsleJ6uViwJwk_10barks_core12logical_planNtNtB7_12serializable8ReadTypeINtNtCs54tgE0qq4eT_4core7convert4FromNtB7_8ReadTypeE4from0B9_
FNDA:0,_RNCNvXs4_NtCsleJ6uViwJwk_10barks_core12logical_planNtNtB7_12serializable8ReadTypeINtNtCs54tgE0qq4eT_4core7convert4FromNtB7_8ReadTypeE4froms_0B9_
FNDA:0,_RNCNvXs5_NtCsleJ6uViwJwk_10barks_core12logical_planNtNtB7_12serializable4JoinINtNtCs54tgE0qq4eT_4core7convert4FromNtB7_4JoinE4from0B9_
FNDA:0,_RNCNvXs8_NtCsleJ6uViwJwk_10barks_core12logical_planNtNtB7_12serializable9AggregateINtNtCs54tgE0qq4eT_4core7convert4FromNtB7_9AggregateE4from0B9_
FNDA:0,_RNCNvXs8_NtCsleJ6uViwJwk_10barks_core12logical_planNtNtB7_12serializable9AggregateINtNtCs54tgE0qq4eT_4core7convert4FromNtB7_9AggregateE4froms0_0B9_
FNDA:0,_RNCNvXs8_NtCsleJ6uViwJwk_10barks_core12logical_planNtNtB7_12serializable9AggregateINtNtCs54tgE0qq4eT_4core7convert4FromNtB7_9AggregateE4froms_0B9_
FNDA:0,_RNCNvXsb_NtCsleJ6uViwJwk_10barks_core12logical_planNtNtB7_12serializable5PivotINtNtCs54tgE0qq4eT_4core7convert4FromNtB7_5PivotE4from0B9_
FNDA:0,_RNCNvXsb_NtCsleJ6uViwJwk_10barks_core12logical_planNtNtB7_12serializable5PivotINtNtCs54tgE0qq4eT_4core7convert4FromNtB7_5PivotE4froms0_0B9_
FNDA:0,_RNCNvXsb_NtCsleJ6uViwJwk_10barks_core12logical_planNtNtB7_12serializable5PivotINtNtCs54tgE0qq4eT_4core7convert4FromNtB7_5PivotE4froms_0B9_
FNDA:0,_RNCNvXsc_NtCsleJ6uViwJwk_10barks_core12logical_planNtNtB7_12serializable7UnpivotINtNtCs54tgE0qq4eT_4core7convert4FromNtB7_7UnpivotE4from0B9_
FNDA:0,_RNCNvXsc_NtCsleJ6uViwJwk_10barks_core12logical_planNtNtB7_12serializable7UnpivotINtNtCs54tgE0qq4eT_4core7convert4FromNtB7_7UnpivotE4froms_0B9_
FNDA:0,_RNCNvXsd_NtCsleJ6uViwJwk_10barks_core12logical_planNtNtB7_12serializable12UnpivotValueINtNtCs54tgE0qq4eT_4core7convert4FromNtB7_12UnpivotValueE4from0B9_
FNDA:0,_RNCNvXse_NtCsleJ6uViwJwk_10barks_core12logical_planNtNtB7_12serializable5ParseINtNtCs54tgE0qq4eT_4core7convert4FromNtB7_5ParseE4from0B9_
FNDA:0,_RNCNvXsf_NtCsleJ6uViwJwk_10barks_core12logical_planNtNtB7_12serializable8GroupMapINtNtCs54tgE0qq4eT_4core7convert4FromNtB7_8GroupMapE4from0B9_
FNDA:0,_RNCNvXsf_NtCsleJ6uViwJwk_10barks_core12logical_planNtNtB7_12serializable8GroupMapINtNtCs54tgE0qq4eT_4core7convert4FromNtB7_8GroupMapE4froms0_0B9_
FNDA:0,_RNCNvXsf_NtCsleJ6uViwJwk_10barks_core12logical_planNtNtB7_12serializable8GroupMapINtNtCs54tgE0qq4eT_4core7convert4FromNtB7_8GroupMapE4froms1_0B9_
FNDA:0,_RNCNvXsf_NtCsleJ6uViwJwk_10barks_core12logical_planNtNtB7_12serializable8GroupMapINtNtCs54tgE0qq4eT_4core7convert4FromNtB7_8GroupMapE4froms2_0B9_
FNDA:0,_RNCNvXsf_NtCsleJ6uViwJwk_10barks_core12logical_planNtNtB7_12serializable8GroupMapINtNtCs54tgE0qq4eT_4core7convert4FromNtB7_8GroupMapE4froms_0B9_
FNDA:0,_RNCNvXsg_NtCsleJ6uViwJwk_10barks_core12logical_planNtNtB7_12serializable10CoGroupMapINtNtCs54tgE0qq4eT_4core7convert4FromNtB7_10CoGroupMapE4from0B9_
FNDA:0,_RNCNvXsg_NtCsleJ6uViwJwk_10barks_core12logical_planNtNtB7_12serializable10CoGroupMapINtNtCs54tgE0qq4eT_4core7convert4FromNtB7_10CoGroupMapE4froms0_0B9_
FNDA:0,_RNCNvXsg_NtCsleJ6uViwJwk_10barks_core12logical_planNtNtB7_12serializable10CoGroupMapINtNtCs54tgE0qq4eT_4core7convert4FromNtB7_10CoGroupMapE4froms1_0B9_
FNDA:0,_RNCNvXsg_NtCsleJ6uViwJwk_10barks_core12logical_planNtNtB7_12serializable10CoGroupMapINtNtCs54tgE0qq4eT_4core7convert4FromNtB7_10CoGroupMapE4froms_0B9_
FNDA:0,_RNCNvXsi_NtCsleJ6uViwJwk_10barks_core12logical_planNtNtB7_12serializable22ApplyInPandasWithStateINtNtCs54tgE0qq4eT_4core7convert4FromNtB7_22ApplyInPandasWithStateE4from0B9_
FNDA:0,_RNCNvXsm_NtCsleJ6uViwJwk_10barks_core12logical_planNtNtB7_12serializable9QueryNodeINtNtCs54tgE0qq4eT_4core7convert4FromNtB7_9QueryNodeE4from0B9_
FNDA:0,_RNCNvXsm_NtCsleJ6uViwJwk_10barks_core12logical_planNtNtB7_12serializable9QueryNodeINtNtCs54tgE0qq4eT_4core7convert4FromNtB7_9QueryNodeE4froms0_0B9_
FNDA:0,_RNCNvXsm_NtCsleJ6uViwJwk_10barks_core12logical_planNtNtB7_12serializable9QueryNodeINtNtCs54tgE0qq4eT_4core7convert4FromNtB7_9QueryNodeE4froms1_0B9_
FNDA:0,_RNCNvXsm_NtCsleJ6uViwJwk_10barks_core12logical_planNtNtB7_12serializable9QueryNodeINtNtCs54tgE0qq4eT_4core7convert4FromNtB7_9QueryNodeE4froms2_0B9_
FNDA:0,_RNCNvXsm_NtCsleJ6uViwJwk_10barks_core12logical_planNtNtB7_12serializable9QueryNodeINtNtCs54tgE0qq4eT_4core7convert4FromNtB7_9QueryNodeE4froms3_0B9_
FNDA:0,_RNCNvXsm_NtCsleJ6uViwJwk_10barks_core12logical_planNtNtB7_12serializable9QueryNodeINtNtCs54tgE0qq4eT_4core7convert4FromNtB7_9QueryNodeE4froms4_0B9_
FNDA:0,_RNCNvXsm_NtCsleJ6uViwJwk_10barks_core12logical_planNtNtB7_12serializable9QueryNodeINtNtCs54tgE0qq4eT_4core7convert4FromNtB7_9QueryNodeE4froms_0B9_
FNDA:0,_RNvXs2_NtCsleJ6uViwJwk_10barks_core12logical_planNtNtB5_12serializable9QueryPlanINtNtCs54tgE0qq4eT_4core7convert4FromNtB5_9QueryPlanE4fromB7_
FNDA:0,_RNvXs4_NtCsleJ6uViwJwk_10barks_core12logical_planNtNtB5_12serializable8ReadTypeINtNtCs54tgE0qq4eT_4core7convert4FromNtB5_8ReadTypeE4fromB7_
FNDA:0,_RNvXs5_NtCsleJ6uViwJwk_10barks_core12logical_planNtNtB5_12serializable4JoinINtNtCs54tgE0qq4eT_4core7convert4FromNtB5_4JoinE4fromB7_
FNDA:0,_RNvXs6_NtCsleJ6uViwJwk_10barks_core12logical_planNtNtB5_12serializable12JoinCriteriaINtNtCs54tgE0qq4eT_4core7convert4FromNtB5_12JoinCriteriaE4fromB7_
FNDA:0,_RNvXs7_NtCsleJ6uViwJwk_10barks_core12logical_planNtNtB5_12serializable12SetOperationINtNtCs54tgE0qq4eT_4core7convert4FromNtB5_12SetOperationE4fromB7_
FNDA:0,_RNvXs8_NtCsleJ6uViwJwk_10barks_core12logical_planNtNtB5_12serializable9AggregateINtNtCs54tgE0qq4eT_4core7convert4FromNtB5_9AggregateE4fromB7_
FNDA:0,_RNvXs9_NtCsleJ6uViwJwk_10barks_core12logical_planNtNtB5_12serializable6SampleINtNtCs54tgE0qq4eT_4core7convert4FromNtB5_6SampleE4fromB7_
FNDA:0,_RNvXsa_NtCsleJ6uViwJwk_10barks_core12logical_planNtNtB5_12serializable11DeduplicateINtNtCs54tgE0qq4eT_4core7convert4FromNtB5_11DeduplicateE4fromB7_
FNDA:0,_RNvXsb_NtCsleJ6uViwJwk_10barks_core12logical_planNtNtB5_12serializable5PivotINtNtCs54tgE0qq4eT_4core7convert4FromNtB5_5PivotE4fromB7_
FNDA:0,_RNvXsc_NtCsleJ6uViwJwk_10barks_core12logical_planNtNtB5_12serializable7UnpivotINtNtCs54tgE0qq4eT_4core7convert4FromNtB5_7UnpivotE4fromB7_
FNDA:0,_RNvXsd_NtCsleJ6uViwJwk_10barks_core12logical_planNtNtB5_12serializable12UnpivotValueINtNtCs54tgE0qq4eT_4core7convert4FromNtB5_12UnpivotValueE4fromB7_
FNDA:0,_RNvXse_NtCsleJ6uViwJwk_10barks_core12logical_planNtNtB5_12serializable5ParseINtNtCs54tgE0qq4eT_4core7convert4FromNtB5_5ParseE4fromB7_
FNDA:0,_RNvXsf_NtCsleJ6uViwJwk_10barks_core12logical_planNtNtB5_12serializable8GroupMapINtNtCs54tgE0qq4eT_4core7convert4FromNtB5_8GroupMapE4fromB7_
FNDA:0,_RNvXsg_NtCsleJ6uViwJwk_10barks_core12logical_planNtNtB5_12serializable10CoGroupMapINtNtCs54tgE0qq4eT_4core7convert4FromNtB5_10CoGroupMapE4fromB7_
FNDA:0,_RNvXsh_NtCsleJ6uViwJwk_10barks_core12logical_planNtNtB5_12serializable13WithWatermarkINtNtCs54tgE0qq4eT_4core7convert4FromNtB5_13WithWatermarkE4fromB7_
FNDA:0,_RNvXsi_NtCsleJ6uViwJwk_10barks_core12logical_planNtNtB5_12serializable22ApplyInPandasWithStateINtNtCs54tgE0qq4eT_4core7convert4FromNtB5_22ApplyInPandasWithStateE4fromB7_
FNDA:0,_RNvXsm_NtCsleJ6uViwJwk_10barks_core12logical_planNtNtB5_12serializable9QueryNodeINtNtCs54tgE0qq4eT_4core7convert4FromNtB5_9QueryNodeE4fromB7_
FNF:90
FNH:29
DA:32,14
DA:33,14
DA:34,14
DA:35,14
DA:36,14
DA:37,14
DA:38,14
DA:50,1
DA:51,1
DA:52,1
DA:53,1
DA:54,1
DA:55,1
DA:56,1
DA:806,2
DA:807,2
DA:808,2
DA:809,0
DA:810,0
DA:811,0
DA:812,0
DA:813,0
DA:814,0
DA:815,2
DA:816,0
DA:817,0
DA:818,0
DA:819,0
DA:820,0
DA:821,0
DA:822,2
DA:823,0
DA:824,0
DA:825,0
DA:826,0
DA:827,0
DA:828,0
DA:829,2
DA:830,0
DA:831,0
DA:832,0
DA:833,0
DA:834,0
DA:835,0
DA:836,2
DA:837,1
DA:838,1
DA:839,1
DA:840,1
DA:841,1
DA:842,1
DA:843,1
DA:844,0
DA:845,0
DA:846,0
DA:847,0
DA:848,0
DA:849,0
DA:850,1
DA:851,0
DA:852,0
DA:853,0
DA:854,0
DA:855,0
DA:856,0
DA:857,1
DA:858,0
DA:859,0
DA:860,0
DA:861,0
DA:862,0
DA:863,0
DA:864,1
DA:865,0
DA:866,0
DA:867,0
DA:868,0
DA:869,0
DA:870,0
DA:871,1
DA:872,1
DA:873,1
DA:874,1
DA:875,1
DA:876,1
DA:877,1
DA:878,0
DA:879,0
DA:880,0
DA:881,0
DA:882,0
DA:883,0
DA:884,0
DA:885,0
DA:886,0
DA:887,0
DA:888,0
DA:889,0
DA:890,0
DA:891,0
DA:892,0
DA:893,0
DA:894,0
DA:895,0
DA:896,0
DA:897,0
DA:898,0
DA:899,0
DA:900,0
DA:901,0
DA:902,0
DA:904,2
DA:1530,1
DA:1531,1
DA:1532,1
DA:1533,1
DA:1534,1
DA:1535,1
DA:1536,1
DA:1537,1
DA:1538,1
DA:1539,1
DA:1540,1
DA:1541,1
DA:1543,1
DA:1544,1
DA:1545,1
DA:1546,1
DA:1547,1
DA:1548,1
DA:1550,0
DA:1552,1
DA:1555,1
DA:1556,1
DA:1557,1
DA:1558,1
DA:1559,1
DA:1560,1
DA:1561,1
DA:1562,1
DA:1563,1
DA:1564,1
DA:1565,1
DA:1566,1
DA:1567,1
DA:1570,1
DA:1571,1
DA:1572,1
DA:1573,1
DA:1574,1
DA:1575,1
DA:1576,1
DA:1577,1
DA:1578,1
DA:1579,1
DA:1580,1
DA:1581,1
DA:1582,1
DA:1583,1
DA:1584,1
DA:1585,1
DA:1587,0
DA:1589,0
DA:1591,1
DA:1594,1
DA:1595,1
DA:1596,1
DA:1597,1
DA:1598,1
DA:1599,1
DA:1600,1
DA:1601,1
DA:1602,1
DA:1603,1
DA:1604,1
DA:1605,1
DA:1606,1
DA:1607,1
DA:1608,1
DA:1609,1
DA:1610,1
DA:1611,1
DA:1612,1
DA:1613,1
DA:1615,0
DA:1617,1
DA:1620,1
DA:1621,1
DA:1622,1
DA:1623,1
DA:1624,1
DA:1625,1
DA:1626,1
DA:1627,1
DA:1628,1
DA:1629,1
DA:1630,1
DA:1631,1
DA:1632,1
DA:1633,1
DA:1634,1
DA:1635,0
DA:1637,1
DA:1638,1
DA:1639,0
DA:1642,0
DA:1644,1
DA:1647,1
DA:1648,1
DA:1649,1
DA:1650,1
DA:1651,1
DA:1652,1
DA:1653,1
DA:1654,1
DA:1655,1
DA:1656,1
DA:1657,1
DA:1658,1
DA:1659,1
DA:1660,1
DA:1661,1
DA:1662,1
DA:1663,1
DA:1664,1
DA:1665,1
DA:1666,1
DA:1667,1
DA:1668,1
DA:1669,1
DA:1670,1
DA:1671,1
DA:1672,1
DA:1673,1
DA:1674,1
DA:1675,1
DA:1676,1
DA:1677,1
DA:1678,1
DA:1679,1
DA:1680,1
DA:1681,1
DA:1683,0
DA:1685,1
DA:1688,1
DA:1689,1
DA:1690,1
DA:1691,1
DA:1692,1
DA:1693,1
DA:1694,1
DA:1695,1
DA:1696,1
DA:1697,1
DA:1698,1
DA:1699,1
DA:1700,1
DA:1701,1
DA:1702,1
DA:1703,1
DA:1704,1
DA:1705,1
DA:1706,1
DA:1707,1
DA:1708,1
DA:1709,1
DA:1710,1
DA:1711,1
DA:1712,1
DA:1713,1
DA:1714,1
DA:1715,1
DA:1717,0
DA:1719,1
DA:1722,1
DA:1723,1
DA:1724,1
DA:1725,1
DA:1726,1
DA:1727,1
DA:1728,1
DA:1729,1
DA:1730,1
DA:1731,1
DA:1732,1
DA:1733,1
DA:1734,1
DA:1735,1
DA:1736,1
DA:1737,1
DA:1738,1
DA:1739,1
DA:1740,1
DA:1741,1
DA:1742,1
DA:1743,1
DA:1744,1
DA:1745,1
DA:1746,1
DA:1747,1
DA:1748,1
DA:1749,1
DA:1751,1
DA:1752,1
DA:1753,1
DA:1754,1
DA:1755,1
DA:1756,1
DA:1758,0
DA:1760,1
DA:1763,1
DA:1764,1
DA:1765,1
DA:1766,1
DA:1767,1
DA:1768,1
DA:1769,1
DA:1770,1
DA:1771,1
DA:1772,1
DA:1773,1
DA:1774,1
DA:1775,1
DA:1776,1
DA:1777,1
DA:1778,1
DA:1779,1
DA:1780,1
DA:1781,1
DA:1782,1
DA:1784,0
DA:1786,1
DA:1789,1
DA:1790,1
DA:1791,1
DA:1792,1
DA:1793,1
DA:1794,1
DA:1795,1
DA:1796,1
DA:1797,1
DA:1798,1
DA:1799,1
DA:1800,1
DA:1801,1
DA:1802,1
DA:1805,1
DA:1806,1
DA:1807,1
DA:1808,1
DA:1809,1
DA:1810,1
DA:1811,1
DA:1812,1
DA:1813,1
DA:1814,1
DA:1815,1
DA:1816,1
DA:1818,10
DA:1819,9
DA:1820,9
DA:1821,9
DA:1822,9
DA:1824,1
DA:1827,1
DA:1828,1
DA:1829,1
DA:1830,1
DA:1831,1
DA:1832,1
DA:1833,1
DA:1834,1
DA:1835,1
DA:1837,1
DA:1838,1
DA:1839,1
DA:1840,1
DA:1841,1
DA:1842,1
DA:1843,1
DA:1844,1
DA:1845,1
DA:1850,1
DA:1851,1
DA:1852,1
DA:1853,1
DA:1854,1
DA:1855,1
DA:1856,1
DA:1857,1
DA:1858,1
DA:1859,1
DA:1860,1
DA:1861,1
DA:1862,1
DA:1863,0
DA:1866,1
DA:1867,1
DA:1868,0
DA:1871,1
DA:1872,1
DA:1873,0
DA:1875,1
DA:1878,1
DA:1879,1
DA:1881,4
DA:1882,3
DA:1883,3
DA:1884,3
DA:1885,3
DA:1887,1
DA:1890,1
DA:1891,1
DA:1892,1
DA:1893,1
DA:1894,1
DA:1895,1
DA:1896,1
DA:1898,5
DA:1899,4
DA:1900,4
DA:1901,4
DA:1902,4
DA:1904,1
DA:1907,1
DA:1908,1
DA:1909,1
DA:1910,1
DA:1911,1
DA:1912,1
DA:1914,4
DA:1915,3
DA:1916,3
DA:1917,3
DA:1918,3
DA:1919,3
DA:1921,1
DA:1924,1
DA:1925,1
DA:1926,1
DA:1927,1
DA:1928,1
DA:1929,1
DA:1930,1
DA:1931,1
DA:1932,1
DA:1933,1
DA:1934,1
DA:1935,1
DA:1936,1
DA:1937,1
DA:1940,1
DA:1941,1
DA:1942,1
DA:1943,1
DA:1944,1
DA:1945,1
DA:1946,1
DA:1947,1
DA:1948,1
DA:1949,1
DA:1950,1
DA:1951,1
DA:1952,1
DA:1953,1
DA:1954,1
DA:1957,1
DA:1958,1
DA:1959,1
DA:1960,1
DA:1961,1
DA:1962,1
DA:1963,1
DA:1964,1
DA:1965,1
DA:1966,1
DA:1967,1
DA:1968,1
DA:1971,1
DA:1972,1
DA:1973,1
DA:1974,1
DA:1975,1
DA:1976,1
DA:1977,1
DA:1978,1
DA:1979,1
DA:1980,1
DA:1981,1
DA:1983,0
DA:1985,1
DA:1988,1
DA:1989,1
DA:1990,1
DA:1991,1
DA:1992,1
DA:1993,1
DA:1994,1
DA:1995,1
DA:1996,1
DA:1997,1
DA:1998,1
DA:1999,1
DA:2000,1
DA:2001,1
DA:2002,1
DA:2003,1
DA:2004,1
DA:2005,1
DA:2006,1
DA:2007,1
DA:2008,1
DA:2009,1
DA:2010,1
DA:2011,1
DA:2013,0
DA:2015,1
DA:2018,1
DA:2019,1
DA:2020,1
DA:2021,1
DA:2022,1
DA:2023,1
DA:2024,1
DA:2025,1
DA:2026,1
DA:2027,1
DA:2028,1
DA:2029,1
DA:2030,1
DA:2031,1
DA:2032,1
DA:2033,1
DA:2034,1
DA:2035,1
DA:2036,1
DA:2037,1
DA:2038,1
DA:2039,1
DA:2040,1
DA:2042,0
DA:2044,1
DA:2047,1
DA:2048,1
DA:2049,1
DA:2050,1
DA:2051,1
DA:2052,1
DA:2053,1
DA:2054,1
DA:2055,1
DA:2056,1
DA:2057,1
DA:2058,1
DA:2059,1
DA:2061,1
DA:2062,1
DA:2063,1
DA:2064,1
DA:2065,1
DA:2066,1
DA:2068,0
DA:2070,1
DA:2073,1
DA:2074,1
DA:2075,1
DA:2076,1
DA:2077,1
DA:2078,1
DA:2079,1
DA:2080,1
DA:2081,1
DA:2082,1
DA:2083,1
DA:2084,1
DA:2085,1
DA:2086,1
DA:2087,1
DA:2088,1
DA:2090,1
DA:2091,1
DA:2092,1
DA:2093,1
DA:2095,0
DA:2097,1
DA:2100,1
DA:2101,1
DA:2102,1
DA:2103,1
DA:2104,1
DA:2105,1
DA:2106,1
DA:2107,1
DA:2109,0
DA:2111,1
DA:2114,1
DA:2115,1
DA:2116,1
DA:2117,1
DA:2118,1
DA:2119,1
DA:2120,1
DA:2121,1
DA:2122,1
DA:2123,1
DA:2124,1
DA:2125,1
DA:2126,1
DA:2127,1
DA:2128,1
DA:2129,1
DA:2130,1
DA:2131,1
DA:2132,1
DA:2133,1
DA:2134,1
DA:2136,0
DA:2138,1
DA:2145,0
DA:2146,0
DA:2147,0
DA:2148,0
DA:2150,0
DA:2155,0
DA:2156,0
DA:2157,0
DA:2158,0
DA:2159,0
DA:2160,0
DA:2165,0
DA:2166,0
DA:2167,0
DA:2168,0
DA:2169,0
DA:2170,0
DA:2176,0
DA:2177,0
DA:2179,0
DA:2180,0
DA:2181,0
DA:2182,0
DA:2183,0
DA:2184,0
DA:2186,0
DA:2187,0
DA:2188,0
DA:2189,0
DA:2190,0
DA:2191,0
DA:2192,0
DA:2193,0
DA:2194,0
DA:2195,0
DA:2196,0
DA:2197,0
DA:2199,0
DA:2203,0
DA:2204,0
DA:2205,0
DA:2206,0
DA:2207,0
DA:2208,0
DA:2209,0
DA:2210,0
DA:2211,0
DA:2215,0
DA:2216,0
DA:2217,0
DA:2218,0
DA:2219,0
DA:2221,0
DA:2225,0
DA:2226,0
DA:2227,0
DA:2228,0
DA:2229,0
DA:2230,0
DA:2231,0
DA:2232,0
DA:2233,0
DA:2234,0
DA:2238,0
DA:2239,0
DA:2240,0
DA:2241,0
DA:2242,0
DA:2243,0
DA:2244,0
DA:2245,0
DA:2246,0
DA:2250,0
DA:2251,0
DA:2252,0
DA:2253,0
DA:2254,0
DA:2255,0
DA:2256,0
DA:2257,0
DA:2258,0
DA:2259,0
DA:2263,0
DA:2264,0
DA:2265,0
DA:2266,0
DA:2267,0
DA:2268,0
DA:2269,0
DA:2270,0
DA:2274,0
DA:2275,0
DA:2276,0
DA:2277,0
DA:2278,0
DA:2279,0
DA:2280,0
DA:2281,0
DA:2282,0
DA:2286,0
DA:2287,0
DA:2288,0
DA:2289,0
DA:2290,0
DA:2291,0
DA:2292,0
DA:2293,0
DA:2294,0
DA:2295,0
DA:2296,0
DA:2297,0
DA:2301,0
DA:2302,0
DA:2303,0
DA:2304,0
DA:2305,0
DA:2306,0
DA:2310,0
DA:2311,0
DA:2312,0
DA:2313,0
DA:2314,0
DA:2315,0
DA:2316,0
DA:2317,0
DA:2321,0
DA:2322,0
DA:2323,0
DA:2324,0
DA:2325,0
DA:2326,0
DA:2327,0
DA:2328,0
DA:2329,0
DA:2330,0
DA:2331,0
DA:2332,0
DA:2333,0
DA:2334,0
DA:2335,0
DA:2336,0
DA:2337,0
DA:2338,0
DA:2339,0
DA:2340,0
DA:2341,0
DA:2342,0
DA:2343,0
DA:2344,0
DA:2345,0
DA:2346,0
DA:2350,0
DA:2351,0
DA:2352,0
DA:2353,0
DA:2354,0
DA:2355,0
DA:2356,0
DA:2357,0
DA:2358,0
DA:2359,0
DA:2360,0
DA:2361,0
DA:2362,0
DA:2363,0
DA:2364,0
DA:2365,0
DA:2366,0
DA:2367,0
DA:2368,0
DA:2369,0
DA:2370,0
DA:2371,0
DA:2372,0
DA:2373,0
DA:2374,0
DA:2375,0
DA:2376,0
DA:2380,0
DA:2381,0
DA:2382,0
DA:2383,0
DA:2384,0
DA:2385,0
DA:2386,0
DA:2390,0
DA:2391,0
DA:2392,0
DA:2393,0
DA:2394,0
DA:2395,0
DA:2396,0
DA:2397,0
DA:2398,0
DA:2399,0
DA:2400,0
DA:2401,0
DA:2402,0
DA:2403,0
DA:2404,0
DA:2408,0
DA:2409,0
DA:2410,0
DA:2411,0
DA:2412,0
DA:2413,0
DA:2414,0
DA:2415,0
DA:2416,0
DA:2417,0
DA:2418,0
DA:2419,0
DA:2420,0
DA:2421,0
DA:2425,0
DA:2426,0
DA:2427,0
DA:2428,0
DA:2429,0
DA:2430,0
DA:2431,0
DA:2432,0
DA:2433,0
DA:2434,0
DA:2435,0
DA:2436,0
DA:2437,0
DA:2438,0
DA:2439,0
DA:2440,0
DA:2441,0
DA:2442,0
DA:2443,0
DA:2444,0
DA:2445,0
DA:2446,0
DA:2447,0
DA:2448,0
DA:2449,0
DA:2450,0
DA:2451,0
DA:2455,0
DA:2456,0
DA:2457,0
DA:2458,0
DA:2459,0
DA:2460,0
DA:2461,0
DA:2462,0
DA:2463,0
DA:2468,0
DA:2469,0
DA:2471,0
DA:2472,0
DA:2473,0
DA:2474,0
DA:2475,0
DA:2476,0
DA:2477,0
DA:2478,0
DA:2479,0
DA:2480,0
DA:2481,0
DA:2482,0
DA:2483,0
DA:2484,0
DA:2485,0
DA:2486,0
DA:2488,0
DA:2489,0
DA:2490,0
DA:2491,0
DA:2492,0
DA:2493,0
DA:2494,0
DA:2495,0
DA:2496,0
DA:2497,0
DA:2498,0
DA:2499,0
DA:2500,0
DA:2501,0
DA:2502,0
DA:2503,0
DA:2504,0
DA:2505,0
DA:2506,0
DA:2507,0
DA:2508,0
DA:2510,0
DA:2511,0
DA:2512,0
DA:2513,0
DA:2514,0
DA:2515,0
DA:2516,0
DA:2517,0
DA:2519,0
DA:2520,0
DA:2521,0
DA:2522,0
DA:2523,0
DA:2524,0
DA:2525,0
DA:2526,0
DA:2528,0
DA:2529,0
DA:2530,0
DA:2531,0
DA:2532,0
DA:2533,0
DA:2535,0
DA:2536,0
DA:2537,0
DA:2538,0
DA:2539,0
DA:2540,0
DA:2542,0
DA:2543,0
DA:2544,0
DA:2545,0
DA:2546,0
DA:2547,0
DA:2548,0
DA:2549,0
DA:2550,0
DA:2551,0
DA:2552,0
DA:2553,0
DA:2554,0
DA:2555,0
DA:2556,0
DA:2557,0
DA:2559,0
DA:2560,0
DA:2561,0
DA:2562,0
DA:2563,0
DA:2564,0
DA:2565,0
DA:2566,0
DA:2567,0
DA:2568,0
DA:2569,0
DA:2570,0
DA:2571,0
DA:2572,0
DA:2574,0
DA:2575,0
DA:2576,0
DA:2577,0
DA:2578,0
DA:2579,0
DA:2580,0
DA:2581,0
DA:2583,0
DA:2584,0
DA:2585,0
DA:2586,0
DA:2587,0
DA:2588,0
DA:2589,0
DA:2590,0
DA:2592,0
DA:2593,0
DA:2594,0
DA:2595,0
DA:2596,0
DA:2597,0
DA:2598,0
DA:2599,0
DA:2600,0
DA:2601,0
DA:2602,0
DA:2603,0
DA:2604,0
DA:2605,0
DA:2607,0
DA:2608,0
DA:2610,0
DA:2611,0
DA:2613,0
DA:2614,0
DA:2617,0
DA:2618,0
DA:2619,0
DA:2620,0
DA:2621,0
DA:2622,0
DA:2623,0
DA:2624,0
DA:2626,0
DA:2627,0
DA:2628,0
DA:2629,0
DA:2630,0
DA:2631,0
DA:2632,0
DA:2633,0
DA:2635,0
DA:2636,0
DA:2637,0
DA:2638,0
DA:2639,0
DA:2640,0
DA:2641,0
DA:2642,0
DA:2643,0
DA:2644,0
DA:2645,0
DA:2646,0
DA:2647,0
DA:2648,0
DA:2649,0
DA:2650,0
DA:2652,0
DA:2653,0
DA:2654,0
DA:2655,0
DA:2656,0
DA:2657,0
DA:2658,0
DA:2659,0
DA:2661,0
DA:2662,0
DA:2663,0
DA:2664,0
DA:2665,0
DA:2666,0
DA:2667,0
DA:2668,0
DA:2670,0
DA:2671,0
DA:2672,0
DA:2673,0
DA:2674,0
DA:2675,0
DA:2676,0
DA:2677,0
DA:2678,0
DA:2679,0
DA:2681,0
DA:2682,0
DA:2683,0
DA:2684,0
DA:2685,0
DA:2686,0
DA:2687,0
DA:2688,0
DA:2689,0
DA:2690,0
DA:2692,0
DA:2693,0
DA:2694,0
DA:2695,0
DA:2696,0
DA:2697,0
DA:2698,0
DA:2699,0
DA:2701,0
DA:2702,0
DA:2703,0
DA:2704,0
DA:2705,0
DA:2706,0
DA:2707,0
DA:2708,0
DA:2709,0
DA:2710,0
DA:2711,0
DA:2712,0
DA:2715,0
DA:2716,0
DA:2717,0
DA:2718,0
DA:2719,0
DA:2720,0
DA:2721,0
DA:2722,0
DA:2723,0
DA:2724,0
DA:2725,0
DA:2726,0
DA:2727,0
DA:2728,0
DA:2729,0
DA:2730,0
DA:2731,0
DA:2733,0
DA:2734,0
DA:2735,0
DA:2736,0
DA:2737,0
DA:2738,0
DA:2739,0
DA:2740,0
DA:2742,0
DA:2743,0
DA:2744,0
DA:2745,0
DA:2746,0
DA:2747,0
DA:2748,0
DA:2749,0
DA:2751,0
DA:2752,0
DA:2753,0
DA:2754,0
DA:2755,0
DA:2756,0
DA:2757,0
DA:2758,0
DA:2759,0
DA:2760,0
DA:2761,0
DA:2762,0
DA:2763,0
DA:2764,0
DA:2765,0
DA:2766,0
DA:2767,0
DA:2768,0
DA:2769,0
DA:2771,0
DA:2776,0
DA:2777,0
DA:2778,0
DA:2780,0
DA:2781,0
DA:2782,0
DA:2783,0
DA:2784,0
DA:2785,0
DA:2786,0
DA:2787,0
DA:2788,0
DA:2789,0
DA:2790,0
DA:2793,0
DA:2794,0
DA:2795,0
DA:2796,0
DA:2797,0
DA:2798,0
DA:2800,0
DA:2801,0
DA:2802,0
DA:2803,0
DA:2804,0
DA:2805,0
DA:2807,0
DA:2808,0
DA:2809,0
DA:2810,0
DA:2811,0
DA:2812,0
DA:2813,0
DA:2814,0
DA:2815,0
DA:2817,0
DA:2818,0
DA:2819,0
DA:2821,0
DA:2822,0
DA:2824,0
DA:2825,0
DA:2826,0
DA:2828,0
DA:2829,0
DA:2830,0
DA:2831,0
DA:2832,0
DA:2834,0
DA:2835,0
DA:2837,0
DA:2839,0
DA:2840,0
DA:2841,0
DA:2842,0
DA:2843,0
DA:2844,0
DA:2845,0
DA:2846,0
DA:2847,0
DA:2848,0
DA:2849,0
DA:2850,0
DA:2852,0
DA:2853,0
DA:2854,0
DA:2856,0
DA:2857,0
DA:2859,0
DA:2860,0
DA:2861,0
DA:2863,0
DA:2864,0
DA:2867,0
DA:2868,0
DA:2869,0
DA:2870,0
DA:2871,0
DA:2872,0
DA:2874,0
DA:2875,0
DA:2876,0
DA:2877,0
DA:2878,0
DA:2879,0
DA:2881,0
DA:2882,0
DA:2883,0
DA:2884,0
DA:2885,0
DA:2886,0
DA:2887,0
DA:2888,0
DA:2889,0
DA:2890,0
DA:2892,0
DA:2893,0
DA:2895,0
DA:2896,0
DA:2899,0
DA:2900,0
DA:2901,0
DA:2902,0
DA:2903,0
DA:2904,0
DA:2905,0
DA:2906,0
DA:2908,0
DA:2909,0
DA:2910,0
DA:2911,0
DA:2912,0
DA:2913,0
DA:2914,0
DA:2915,0
DA:2916,0
DA:2917,0
DA:2918,0
DA:2919,0
DA:2921,0
DA:2922,0
DA:2923,0
DA:2924,0
DA:2925,0
DA:2926,0
DA:2927,0
DA:2928,0
DA:2929,0
DA:2930,0
DA:2931,0
DA:2932,0
DA:2933,0
DA:2935,0
DA:2936,0
DA:2937,0
DA:2938,0
DA:2939,0
DA:2940,0
DA:2941,0
DA:2942,0
DA:2943,0
DA:2944,0
DA:2945,0
DA:2946,0
DA:2947,0
DA:2948,0
DA:2949,0
DA:2950,0
DA:2951,0
DA:2952,0
DA:2953,0
DA:2955,0
DA:2956,0
DA:2957,0
DA:2958,0
DA:2959,0
DA:2960,0
DA:2961,0
DA:2962,0
DA:2963,0
DA:2964,0
DA:2965,0
DA:2966,0
DA:2967,0
DA:2968,0
DA:2970,0
DA:2971,0
DA:2972,0
DA:2973,0
DA:2974,0
DA:2975,0
DA:2976,0
DA:2977,0
DA:2979,0
DA:2980,0
DA:2982,0
DA:2983,0
DA:2985,0
DA:2986,0
DA:2989,0
BRF:0
BRH:0
LF:1360
LH:524
end_of_record
SF:/home/lonless/rust-projects/barks/core/src/types.rs
FN:385,_RNCINvXNvNtNtCsleJ6uViwJwk_10barks_core5types12serializables5_1__NtB7_6FieldsNtNtCs1jtb3MfGbeA_5serde2de11Deserialize11deserializeINtNvNtNtB1h_9___private2de13missing_field24MissingFieldDeserializerNtNtCs68TxGPNmNTF_10serde_json5error5ErrorEE0Bb_
FN:385,_RNCINvXNvNtNtCsleJ6uViwJwk_10barks_core5types12serializables5_1__NtB7_6FieldsNtNtCs1jtb3MfGbeA_5serde2de11Deserialize11deserializeQINtNtCs68TxGPNmNTF_10serde_json2de12DeserializerNtNtB2a_4read7StrReadEE0Bb_
FN:404,_RNCINvXNvNtNtCsleJ6uViwJwk_10barks_core5types12serializables7_1__NtB7_11UnionFieldsNtNtCs1jtb3MfGbeA_5serde2de11Deserialize11deserializeINtNvNtNtB1n_9___private2de13missing_field24MissingFieldDeserializerNtNtCs68TxGPNmNTF_10serde_json5error5ErrorEE0Bb_
FN:404,_RNCINvXNvNtNtCsleJ6uViwJwk_10barks_core5types12serializables7_1__NtB7_11UnionFieldsNtNtCs1jtb3MfGbeA_5serde2de11Deserialize11deserializeQINtNtCs68TxGPNmNTF_10serde_json2de12DeserializerNtNtB2g_4read7StrReadEE0Bb_
FN:1107,_RNvXsn_NtCsleJ6uViwJwk_10barks_core5typesNtNtB5_12serializable8DataTypeINtNtCs54tgE0qq4eT_4core7convert4FromNtB5_8DataTypeE4fromB7_
FN:1117,_RNvXso_NtCsleJ6uViwJwk_10barks_core5typesNtNtB5_12serializable12DataTypeKindINtNtCs54tgE0qq4eT_4core7convert4FromNtB5_12DataTypeKindE4fromB7_
FN:1223,_RNvXsp_NtCsleJ6uViwJwk_10barks_core5typesNtNtB5_12serializable5FieldINtNtCs54tgE0qq4eT_4core7convert4FromNtB5_5FieldE4fromB7_
FN:1235,_RNvXsq_NtCsleJ6uViwJwk_10barks_core5typesNtNtB5_12serializable6FieldsINtNtCs54tgE0qq4eT_4core7convert4FromNtB5_6FieldsE4fromB7_
FN:1246,_RNvXsr_NtCsleJ6uViwJwk_10barks_core5typesNtNtB5_12serializable11UnionFieldsINtNtCs54tgE0qq4eT_4core7convert4FromNtB5_11UnionFieldsE4fromB7_
FN:1259,_RNvXss_NtCsleJ6uViwJwk_10barks_core5typesNtNtB5_12serializable6SchemaINtNtCs54tgE0qq4eT_4core7convert4FromNtB5_6SchemaE4fromB7_
FN:272,_RINvXININtCsleJ6uViwJwk_10barks_core5typessd_0pEINtB6_11UnionFieldspEINtNtNtNtCs54tgE0qq4eT_4core4iter6traits7collect12FromIteratorTaINtNtCs48R0vjQGLEQ_5alloc4sync3ArcINtB6_5FieldpEEEE9from_iterpEB8_
FN:258,_RNvMsb_NtCsleJ6uViwJwk_10barks_core5typesINtB5_11UnionFieldspE5emptyB7_
FN:533,_RNvMsh_NtCsleJ6uViwJwk_10barks_core5typesNtB5_17IntervalFieldType7invalid
FN:747,_RNvMsl_NtCsleJ6uViwJwk_10barks_core5typesNtB5_8DataType6binary
FN:760,_RNvMsl_NtCsleJ6uViwJwk_10barks_core5typesNtB5_8DataType6date32
FN:717,_RNvMsl_NtCsleJ6uViwJwk_10barks_core5typesNtB5_8DataType7boolean
FN:732,_RNvMsl_NtCsleJ6uViwJwk_10barks_core5typesNtB5_8DataType7float32
FN:196,_RNvXININtCsleJ6uViwJwk_10barks_core5typess2_0pEINtB5_6FieldspENtNtCs54tgE0qq4eT_4core7default7Default7defaultB7_
FN:220,_RNvXININtCsleJ6uViwJwk_10barks_core5typess6_0pEINtB5_6FieldspEINtNtCs54tgE0qq4eT_4core7convert4FromINtNtCs48R0vjQGLEQ_5alloc3vec3VecINtNtB1E_4sync3ArcINtB5_5FieldpEEEE4fromB7_
FN:226,_RNvXININtCsleJ6uViwJwk_10barks_core5typess7_0pEINtB5_6FieldspEINtNtCs54tgE0qq4eT_4core7convert4FromRSINtNtCs48R0vjQGLEQ_5alloc4sync3ArcINtB5_5FieldpEEE4fromB7_
FN:232,_RNvXININtCsleJ6uViwJwk_10barks_core5typess8_0pKpEINtB5_6FieldspEINtNtCs54tgE0qq4eT_4core7convert4FromAINtNtCs48R0vjQGLEQ_5alloc4sync3ArcINtB5_5FieldpEEpE4fromB7_
FN:249,_RNvXININtCsleJ6uViwJwk_10barks_core5typessa_0pERINtB5_6FieldspENtNtNtNtCs54tgE0qq4eT_4core4iter6traits7collect12IntoIterator9into_iterB7_
FN:266,_RNvXININtCsleJ6uViwJwk_10barks_core5typessc_0pEINtB5_11UnionFieldspENtNtNtCs54tgE0qq4eT_4core3ops5deref5Deref5derefB7_
FN:416,_RNvXs1_NtNtCsleJ6uViwJwk_10barks_core5types12serializableNtB5_11UnionFieldsNtNtNtCs54tgE0qq4eT_4core3ops5deref5Deref5deref
FN:518,_RNvXs29_NtCsleJ6uViwJwk_10barks_core5typesNtB6_17IntervalFieldTypeINtNtCs54tgE0qq4eT_4core7convert7TryFromlE8try_fromB8_
FN:47,_RNvMs_NtCsleJ6uViwJwk_10barks_core5typesNtB4_8DataType3new
FN:463,_RNvMse_NtCsleJ6uViwJwk_10barks_core5typesNtB5_9UnionMode7invalid
FN:501,_RNvMsg_NtCsleJ6uViwJwk_10barks_core5typesNtB5_12IntervalUnit7invalid
FN:561,_RNvMsi_NtCsleJ6uViwJwk_10barks_core5typesNtB5_12DataTypeKind10is_numeric
FN:570,_RNvMsi_NtCsleJ6uViwJwk_10barks_core5typesNtB5_12DataTypeKind11is_temporal
FN:594,_RNvMsi_NtCsleJ6uViwJwk_10barks_core5typesNtB5_12DataTypeKind9is_binary
FN:607,_RNvMsi_NtCsleJ6uViwJwk_10barks_core5typesNtB5_12DataTypeKind9is_nested
FN:584,_RNvMsi_NtCsleJ6uViwJwk_10barks_core5typesNtB5_12DataTypeKind9is_string
FN:640,_RNvMsj_NtCsleJ6uViwJwk_10barks_core5typesNtB5_13PrimitiveType10is_integer
FN:622,_RNvMsj_NtCsleJ6uViwJwk_10barks_core5typesNtB5_13PrimitiveType10is_numeric
FN:655,_RNvMsj_NtCsleJ6uViwJwk_10barks_core5typesNtB5_13PrimitiveType17is_floating_point
FN:663,_RNvMsj_NtCsleJ6uViwJwk_10barks_core5typesNtB5_13PrimitiveType9is_signed
FN:680,_RNvMsk_NtCsleJ6uViwJwk_10barks_core5typesNtB5_12DataTypeKind19validate_decimal128
FN:697,_RNvMsk_NtCsleJ6uViwJwk_10barks_core5typesNtB5_12DataTypeKind19validate_decimal256
FN:765,_RNvMsl_NtCsleJ6uViwJwk_10barks_core5typesNtB5_8DataType10decimal128
FN:771,_RNvMsl_NtCsleJ6uViwJwk_10barks_core5typesNtB5_8DataType10decimal256
FN:785,_RNvMsl_NtCsleJ6uViwJwk_10barks_core5typesNtB5_8DataType11struct_type
FN:752,_RNvMsl_NtCsleJ6uViwJwk_10barks_core5typesNtB5_8DataType15timestamp_nanos
FN:777,_RNvMsl_NtCsleJ6uViwJwk_10barks_core5typesNtB5_8DataType4list
FN:742,_RNvMsl_NtCsleJ6uViwJwk_10barks_core5typesNtB5_8DataType4utf8
FN:722,_RNvMsl_NtCsleJ6uViwJwk_10barks_core5typesNtB5_8DataType5int32
FN:727,_RNvMsl_NtCsleJ6uViwJwk_10barks_core5typesNtB5_8DataType5int64
FN:737,_RNvMsl_NtCsleJ6uViwJwk_10barks_core5typesNtB5_8DataType7float64
FN:452,_RNvXs1L_NtCsleJ6uViwJwk_10barks_core5typesNtB6_9UnionModeINtNtCs54tgE0qq4eT_4core7convert7TryFromlE8try_fromB8_
FN:489,_RNvXs1X_NtCsleJ6uViwJwk_10barks_core5typesNtB6_12IntervalUnitINtNtCs54tgE0qq4eT_4core7convert7TryFromlE8try_fromB8_
FN:469,_RNvXsf_NtCsleJ6uViwJwk_10barks_core5typesNtB5_9UnionModeNtNtCs54tgE0qq4eT_4core3fmt7Display3fmt
FN:940,_RNvNtNtCsleJ6uViwJwk_10barks_core5types5testss_16test_into_schema
FN:957,_RNvNtNtCsleJ6uViwJwk_10barks_core5types5testss_17test_enum_display
FN:963,_RNvNtNtCsleJ6uViwJwk_10barks_core5types5testss_18test_enum_try_from
FN:898,_RNvNtNtCsleJ6uViwJwk_10barks_core5types5testss_19test_field_creation
FN:930,_RNvNtNtCsleJ6uViwJwk_10barks_core5types5testss_20test_schema_creation
FN:844,_RNvNtNtCsleJ6uViwJwk_10barks_core5types5testss_21test_data_type_checks
FN:916,_RNvNtNtCsleJ6uViwJwk_10barks_core5types5testss_22test_fields_collection
FN:1069,_RNvNtNtCsleJ6uViwJwk_10barks_core5types5testss_22test_schema_conversion
FN:875,_RNvNtNtCsleJ6uViwJwk_10barks_core5types5testss_23test_decimal_validation
FN:978,_RNvNtNtCsleJ6uViwJwk_10barks_core5types5testss_23test_serializable_types
FN:1022,_RNvNtNtCsleJ6uViwJwk_10barks_core5types5testss_25test_data_type_conversion
FN:823,_RNvNtNtCsleJ6uViwJwk_10barks_core5types5testss_26test_primitive_type_checks
FN:1037,_RNvNtNtCsleJ6uViwJwk_10barks_core5types5testss_33test_complex_data_type_conversion
FN:391,_RNvMNtNtCsleJ6uViwJwk_10barks_core5types12serializableNtB2_6Fields3new
FN:409,_RNvMs0_NtNtCsleJ6uViwJwk_10barks_core5types12serializableNtB5_11UnionFields3new
FN:398,_RNvXs_NtNtCsleJ6uViwJwk_10barks_core5types12serializableNtB4_6FieldsNtNtNtCs54tgE0qq4eT_4core3ops5deref5Deref5deref
FN:803,_RINvMsm_NtCsleJ6uViwJwk_10barks_core5typesNtB6_5Field13with_metadataReEB8_
FN:793,_RINvMsm_NtCsleJ6uViwJwk_10barks_core5typesNtB6_5Field3newReEB8_
FN:202,_RINvXs3_NtCsleJ6uViwJwk_10barks_core5typesNtB6_6FieldsINtNtNtNtCs54tgE0qq4eT_4core4iter6traits7collect12FromIteratorNtB6_5FieldE9from_iterINtNtNtCs48R0vjQGLEQ_5alloc3vec9into_iter8IntoIterB1Q_EEB8_
FN:208,_RINvXs4_NtCsleJ6uViwJwk_10barks_core5typesNtB6_6FieldsINtNtNtNtCs54tgE0qq4eT_4core4iter6traits7collect12FromIteratorINtNtCs48R0vjQGLEQ_5alloc4sync3ArcNtB6_5FieldEE9from_iterINtNtNtBX_8adapters3map3MapINtNtNtB1V_3vec9into_iter8IntoIterB2o_ENvMsc_B1T_B1Q_3newEEB8_
FN:1238,_RNCNvXsq_NtCsleJ6uViwJwk_10barks_core5typesNtNtB7_12serializable6FieldsINtNtCs54tgE0qq4eT_4core7convert4FromNtB7_6FieldsE4from0B9_
FN:1251,_RNCNvXsr_NtCsleJ6uViwJwk_10barks_core5typesNtNtB7_12serializable11UnionFieldsINtNtCs54tgE0qq4eT_4core7convert4FromNtB7_11UnionFieldsE4from0B9_
FN:160,_RNvMs0_NtCsleJ6uViwJwk_10barks_core5typesNtB5_8DataType11into_schemaB7_
FN:190,_RNvMs1_NtCsleJ6uViwJwk_10barks_core5typesNtB5_6Fields5emptyB7_
FN:214,_RNvXs5_NtCsleJ6uViwJwk_10barks_core5typesNtB5_6FieldsINtNtCs54tgE0qq4eT_4core7convert4FromINtNtCs48R0vjQGLEQ_5alloc3vec3VecNtB5_5FieldEE4fromB7_
FN:240,_RNvXs9_NtCsleJ6uViwJwk_10barks_core5typesNtB5_6FieldsNtNtNtCs54tgE0qq4eT_4core3ops5deref5Deref5derefB7_
FNDA:0,_RNCINvXNvNtNtCsleJ6uViwJwk_10barks_core5types12serializables5_1__NtB7_6FieldsNtNtCs1jtb3MfGbeA_5serde2de11Deserialize11deserializeINtNvNtNtB1h_9___private2de13missing_field24MissingFieldDeserializerNtNtCs68TxGPNmNTF_10serde_json5error5ErrorEE0Bb_
FNDA:1,_RNCINvXNvNtNtCsleJ6uViwJwk_10barks_core5types12serializables5_1__NtB7_6FieldsNtNtCs1jtb3MfGbeA_5serde2de11Deserialize11deserializeQINtNtCs68TxGPNmNTF_10serde_json2de12DeserializerNtNtB2a_4read7StrReadEE0Bb_
FNDA:0,_RNCINvXNvNtNtCsleJ6uViwJwk_10barks_core5types12serializables7_1__NtB7_11UnionFieldsNtNtCs1jtb3MfGbeA_5serde2de11Deserialize11deserializeINtNvNtNtB1n_9___private2de13missing_field24MissingFieldDeserializerNtNtCs68TxGPNmNTF_10serde_json5error5ErrorEE0Bb_
FNDA:0,_RNCINvXNvNtNtCsleJ6uViwJwk_10barks_core5types12serializables7_1__NtB7_11UnionFieldsNtNtCs1jtb3MfGbeA_5serde2de11Deserialize11deserializeQINtNtCs68TxGPNmNTF_10serde_json2de12DeserializerNtNtB2g_4read7StrReadEE0Bb_
FNDA:6,_RNvXsn_NtCsleJ6uViwJwk_10barks_core5typesNtNtB5_12serializable8DataTypeINtNtCs54tgE0qq4eT_4core7convert4FromNtB5_8DataTypeE4fromB7_
FNDA:6,_RNvXso_NtCsleJ6uViwJwk_10barks_core5typesNtNtB5_12serializable12DataTypeKindINtNtCs54tgE0qq4eT_4core7convert4FromNtB5_12DataTypeKindE4fromB7_
FNDA:2,_RNvXsp_NtCsleJ6uViwJwk_10barks_core5typesNtNtB5_12serializable5FieldINtNtCs54tgE0qq4eT_4core7convert4FromNtB5_5FieldE4fromB7_
FNDA:1,_RNvXsq_NtCsleJ6uViwJwk_10barks_core5typesNtNtB5_12serializable6FieldsINtNtCs54tgE0qq4eT_4core7convert4FromNtB5_6FieldsE4fromB7_
FNDA:0,_RNvXsr_NtCsleJ6uViwJwk_10barks_core5typesNtNtB5_12serializable11UnionFieldsINtNtCs54tgE0qq4eT_4core7convert4FromNtB5_11UnionFieldsE4fromB7_
FNDA:1,_RNvXss_NtCsleJ6uViwJwk_10barks_core5typesNtNtB5_12serializable6SchemaINtNtCs54tgE0qq4eT_4core7convert4FromNtB5_6SchemaE4fromB7_
FNDA:0,_RINvXININtCsleJ6uViwJwk_10barks_core5typessd_0pEINtB6_11UnionFieldspEINtNtNtNtCs54tgE0qq4eT_4core4iter6traits7collect12FromIteratorTaINtNtCs48R0vjQGLEQ_5alloc4sync3ArcINtB6_5FieldpEEEE9from_iterpEB8_
FNDA:0,_RNvMsb_NtCsleJ6uViwJwk_10barks_core5typesINtB5_11UnionFieldspE5emptyB7_
FNDA:0,_RNvMsh_NtCsleJ6uViwJwk_10barks_core5typesNtB5_17IntervalFieldType7invalid
FNDA:0,_RNvMsl_NtCsleJ6uViwJwk_10barks_core5typesNtB5_8DataType6binary
FNDA:0,_RNvMsl_NtCsleJ6uViwJwk_10barks_core5typesNtB5_8DataType6date32
FNDA:0,_RNvMsl_NtCsleJ6uViwJwk_10barks_core5typesNtB5_8DataType7boolean
FNDA:0,_RNvMsl_NtCsleJ6uViwJwk_10barks_core5typesNtB5_8DataType7float32
FNDA:0,_RNvXININtCsleJ6uViwJwk_10barks_core5typess2_0pEINtB5_6FieldspENtNtCs54tgE0qq4eT_4core7default7Default7defaultB7_
FNDA:0,_RNvXININtCsleJ6uViwJwk_10barks_core5typess6_0pEINtB5_6FieldspEINtNtCs54tgE0qq4eT_4core7convert4FromINtNtCs48R0vjQGLEQ_5alloc3vec3VecINtNtB1E_4sync3ArcINtB5_5FieldpEEEE4fromB7_
FNDA:0,_RNvXININtCsleJ6uViwJwk_10barks_core5typess7_0pEINtB5_6FieldspEINtNtCs54tgE0qq4eT_4core7convert4FromRSINtNtCs48R0vjQGLEQ_5alloc4sync3ArcINtB5_5FieldpEEE4fromB7_
FNDA:0,_RNvXININtCsleJ6uViwJwk_10barks_core5typess8_0pKpEINtB5_6FieldspEINtNtCs54tgE0qq4eT_4core7convert4FromAINtNtCs48R0vjQGLEQ_5alloc4sync3ArcINtB5_5FieldpEEpE4fromB7_
FNDA:0,_RNvXININtCsleJ6uViwJwk_10barks_core5typessa_0pERINtB5_6FieldspENtNtNtNtCs54tgE0qq4eT_4core4iter6traits7collect12IntoIterator9into_iterB7_
FNDA:0,_RNvXININtCsleJ6uViwJwk_10barks_core5typessc_0pEINtB5_11UnionFieldspENtNtNtCs54tgE0qq4eT_4core3ops5deref5Deref5derefB7_
FNDA:0,_RNvXs1_NtNtCsleJ6uViwJwk_10barks_core5types12serializableNtB5_11UnionFieldsNtNtNtCs54tgE0qq4eT_4core3ops5deref5Deref5deref
FNDA:0,_RNvXs29_NtCsleJ6uViwJwk_10barks_core5typesNtB6_17IntervalFieldTypeINtNtCs54tgE0qq4eT_4core7convert7TryFromlE8try_fromB8_
FNDA:70,_RNvMs_NtCsleJ6uViwJwk_10barks_core5typesNtB4_8DataType3new
FNDA:1,_RNvMse_NtCsleJ6uViwJwk_10barks_core5typesNtB5_9UnionMode7invalid
FNDA:1,_RNvMsg_NtCsleJ6uViwJwk_10barks_core5typesNtB5_12IntervalUnit7invalid
FNDA:4,_RNvMsi_NtCsleJ6uViwJwk_10barks_core5typesNtB5_12DataTypeKind10is_numeric
FNDA:4,_RNvMsi_NtCsleJ6uViwJwk_10barks_core5typesNtB5_12DataTypeKind11is_temporal
FNDA:4,_RNvMsi_NtCsleJ6uViwJwk_10barks_core5typesNtB5_12DataTypeKind9is_binary
FNDA:4,_RNvMsi_NtCsleJ6uViwJwk_10barks_core5typesNtB5_12DataTypeKind9is_nested
FNDA:4,_RNvMsi_NtCsleJ6uViwJwk_10barks_core5typesNtB5_12DataTypeKind9is_string
FNDA:3,_RNvMsj_NtCsleJ6uViwJwk_10barks_core5typesNtB5_13PrimitiveType10is_integer
FNDA:7,_RNvMsj_NtCsleJ6uViwJwk_10barks_core5typesNtB5_13PrimitiveType10is_numeric
FNDA:3,_RNvMsj_NtCsleJ6uViwJwk_10barks_core5typesNtB5_13PrimitiveType17is_floating_point
FNDA:3,_RNvMsj_NtCsleJ6uViwJwk_10barks_core5typesNtB5_13PrimitiveType9is_signed
FNDA:5,_RNvMsk_NtCsleJ6uViwJwk_10barks_core5typesNtB5_12DataTypeKind19validate_decimal128
FNDA:3,_RNvMsk_NtCsleJ6uViwJwk_10barks_core5typesNtB5_12DataTypeKind19validate_decimal256
FNDA:5,_RNvMsl_NtCsleJ6uViwJwk_10barks_core5typesNtB5_8DataType10decimal128
FNDA:3,_RNvMsl_NtCsleJ6uViwJwk_10barks_core5typesNtB5_8DataType10decimal256
FNDA:1,_RNvMsl_NtCsleJ6uViwJwk_10barks_core5typesNtB5_8DataType11struct_type
FNDA:1,_RNvMsl_NtCsleJ6uViwJwk_10barks_core5typesNtB5_8DataType15timestamp_nanos
FNDA:1,_RNvMsl_NtCsleJ6uViwJwk_10barks_core5typesNtB5_8DataType4list
FNDA:6,_RNvMsl_NtCsleJ6uViwJwk_10barks_core5typesNtB5_8DataType4utf8
FNDA:5,_RNvMsl_NtCsleJ6uViwJwk_10barks_core5typesNtB5_8DataType5int32
FNDA:1,_RNvMsl_NtCsleJ6uViwJwk_10barks_core5typesNtB5_8DataType5int64
FNDA:2,_RNvMsl_NtCsleJ6uViwJwk_10barks_core5typesNtB5_8DataType7float64
FNDA:3,_RNvXs1L_NtCsleJ6uViwJwk_10barks_core5typesNtB6_9UnionModeINtNtCs54tgE0qq4eT_4core7convert7TryFromlE8try_fromB8_
FNDA:4,_RNvXs1X_NtCsleJ6uViwJwk_10barks_core5typesNtB6_12IntervalUnitINtNtCs54tgE0qq4eT_4core7convert7TryFromlE8try_fromB8_
FNDA:2,_RNvXsf_NtCsleJ6uViwJwk_10barks_core5typesNtB5_9UnionModeNtNtCs54tgE0qq4eT_4core3fmt7Display3fmt
FNDA:1,_RNvNtNtCsleJ6uViwJwk_10barks_core5types5testss_16test_into_schema
FNDA:1,_RNvNtNtCsleJ6uViwJwk_10barks_core5types5testss_17test_enum_display
FNDA:1,_RNvNtNtCsleJ6uViwJwk_10barks_core5types5testss_18test_enum_try_from
FNDA:1,_RNvNtNtCsleJ6uViwJwk_10barks_core5types5testss_19test_field_creation
FNDA:1,_RNvNtNtCsleJ6uViwJwk_10barks_core5types5testss_20test_schema_creation
FNDA:1,_RNvNtNtCsleJ6uViwJwk_10barks_core5types5testss_21test_data_type_checks
FNDA:1,_RNvNtNtCsleJ6uViwJwk_10barks_core5types5testss_22test_fields_collection
FNDA:1,_RNvNtNtCsleJ6uViwJwk_10barks_core5types5testss_22test_schema_conversion
FNDA:1,_RNvNtNtCsleJ6uViwJwk_10barks_core5types5testss_23test_decimal_validation
FNDA:1,_RNvNtNtCsleJ6uViwJwk_10barks_core5types5testss_23test_serializable_types
FNDA:1,_RNvNtNtCsleJ6uViwJwk_10barks_core5types5testss_25test_data_type_conversion
FNDA:1,_RNvNtNtCsleJ6uViwJwk_10barks_core5types5testss_26test_primitive_type_checks
FNDA:1,_RNvNtNtCsleJ6uViwJwk_10barks_core5types5testss_33test_complex_data_type_conversion
FNDA:4,_RNvMNtNtCsleJ6uViwJwk_10barks_core5types12serializableNtB2_6Fields3new
FNDA:1,_RNvMs0_NtNtCsleJ6uViwJwk_10barks_core5types12serializableNtB5_11UnionFields3new
FNDA:8,_RNvXs_NtNtCsleJ6uViwJwk_10barks_core5types12serializableNtB4_6FieldsNtNtNtCs54tgE0qq4eT_4core3ops5deref5Deref5deref
FNDA:1,_RINvMsm_NtCsleJ6uViwJwk_10barks_core5typesNtB6_5Field13with_metadataReEB8_
FNDA:7,_RINvMsm_NtCsleJ6uViwJwk_10barks_core5typesNtB6_5Field3newReEB8_
FNDA:5,_RINvXs3_NtCsleJ6uViwJwk_10barks_core5typesNtB6_6FieldsINtNtNtNtCs54tgE0qq4eT_4core4iter6traits7collect12FromIteratorNtB6_5FieldE9from_iterINtNtNtCs48R0vjQGLEQ_5alloc3vec9into_iter8IntoIterB1Q_EEB8_
FNDA:5,_RINvXs4_NtCsleJ6uViwJwk_10barks_core5typesNtB6_6FieldsINtNtNtNtCs54tgE0qq4eT_4core4iter6traits7collect12FromIteratorINtNtCs48R0vjQGLEQ_5alloc4sync3ArcNtB6_5FieldEE9from_iterINtNtNtBX_8adapters3map3MapINtNtNtB1V_3vec9into_iter8IntoIterB2o_ENvMsc_B1T_B1Q_3newEEB8_
FNDA:2,_RNCNvXsq_NtCsleJ6uViwJwk_10barks_core5typesNtNtB7_12serializable6FieldsINtNtCs54tgE0qq4eT_4core7convert4FromNtB7_6FieldsE4from0B9_
FNDA:0,_RNCNvXsr_NtCsleJ6uViwJwk_10barks_core5typesNtNtB7_12serializable11UnionFieldsINtNtCs54tgE0qq4eT_4core7convert4FromNtB7_11UnionFieldsE4from0B9_
FNDA:2,_RNvMs0_NtCsleJ6uViwJwk_10barks_core5typesNtB5_8DataType11into_schemaB7_
FNDA:1,_RNvMs1_NtCsleJ6uViwJwk_10barks_core5typesNtB5_6Fields5emptyB7_
FNDA:5,_RNvXs5_NtCsleJ6uViwJwk_10barks_core5typesNtB5_6FieldsINtNtCs54tgE0qq4eT_4core7convert4FromINtNtCs48R0vjQGLEQ_5alloc3vec3VecNtB5_5FieldEE4fromB7_
FNDA:10,_RNvXs9_NtCsleJ6uViwJwk_10barks_core5typesNtB5_6FieldsNtNtNtCs54tgE0qq4eT_4core3ops5deref5Deref5derefB7_
FNF:75
FNH:57
DA:47,70
DA:48,70
DA:49,70
DA:50,70
DA:51,70
DA:52,70
DA:160,2
DA:161,2
DA:162,1
DA:163,1
DA:164,1
DA:165,1
DA:166,1
DA:167,1
DA:168,1
DA:170,2
DA:171,2
DA:190,1
DA:191,1
DA:192,1
DA:196,0
DA:197,0
DA:198,0
DA:202,5
DA:203,5
DA:204,5
DA:208,5
DA:209,5
DA:210,5
DA:214,5
DA:215,5
DA:216,5
DA:220,0
DA:221,0
DA:222,0
DA:226,0
DA:227,0
DA:228,0
DA:232,0
DA:233,0
DA:234,0
DA:240,10
DA:241,10
DA:242,10
DA:249,0
DA:250,0
DA:251,0
DA:258,0
DA:259,0
DA:260,0
DA:266,0
DA:267,0
DA:268,0
DA:272,0
DA:273,0
DA:274,0
DA:385,1
DA:391,4
DA:392,4
DA:393,4
DA:398,8
DA:399,8
DA:400,8
DA:404,0
DA:409,1
DA:410,1
DA:411,1
DA:416,0
DA:417,0
DA:418,0
DA:452,3
DA:463,1
DA:464,1
DA:465,1
DA:469,2
DA:470,2
DA:471,1
DA:472,1
DA:474,2
DA:489,4
DA:501,1
DA:502,1
DA:503,1
DA:518,0
DA:533,0
DA:534,0
DA:535,0
DA:561,4
DA:562,4
DA:563,2
DA:564,0
DA:565,2
DA:567,4
DA:570,4
DA:571,3
DA:572,2
DA:581,4
DA:584,4
DA:585,3
DA:586,2
DA:591,4
DA:594,4
DA:595,4
DA:596,2
DA:604,4
DA:607,4
DA:608,3
DA:609,4
DA:617,4
DA:622,7
DA:623,3
DA:624,7
DA:637,7
DA:640,3
DA:641,1
DA:642,3
DA:652,3
DA:655,3
DA:656,2
DA:657,3
DA:660,3
DA:663,3
DA:664,1
DA:665,3
DA:674,3
DA:680,5
DA:681,5
DA:682,2
DA:683,2
DA:684,2
DA:685,2
DA:686,3
DA:687,3
DA:688,1
DA:689,1
DA:690,1
DA:691,1
DA:692,2
DA:693,2
DA:694,5
DA:697,3
DA:698,3
DA:699,1
DA:700,1
DA:701,1
DA:702,1
DA:703,2
DA:704,2
DA:705,0
DA:706,0
DA:707,0
DA:708,0
DA:709,2
DA:710,2
DA:711,3
DA:717,0
DA:718,0
DA:719,0
DA:722,5
DA:723,5
DA:724,5
DA:727,1
DA:728,1
DA:729,1
DA:732,0
DA:733,0
DA:734,0
DA:737,2
DA:738,2
DA:739,2
DA:742,6
DA:743,6
DA:744,6
DA:747,0
DA:748,0
DA:749,0
DA:752,1
DA:753,1
DA:754,1
DA:755,1
DA:756,1
DA:757,1
DA:760,0
DA:761,0
DA:762,0
DA:765,5
DA:766,5
DA:767,2
DA:768,5
DA:771,3
DA:772,3
DA:773,2
DA:774,3
DA:777,1
DA:778,1
DA:779,1
DA:780,1
DA:781,1
DA:782,1
DA:785,1
DA:786,1
DA:787,1
DA:793,7
DA:794,7
DA:795,7
DA:796,7
DA:797,7
DA:798,7
DA:799,7
DA:800,7
DA:803,1
DA:804,1
DA:805,1
DA:806,1
DA:807,1
DA:808,1
DA:809,1
DA:810,1
DA:811,1
DA:812,1
DA:813,1
DA:814,1
DA:815,1
DA:823,1
DA:824,1
DA:825,1
DA:826,1
DA:827,1
DA:829,1
DA:830,1
DA:831,1
DA:832,1
DA:834,1
DA:835,1
DA:836,1
DA:837,1
DA:839,1
DA:840,1
DA:841,1
DA:844,1
DA:845,1
DA:846,1
DA:847,1
DA:848,1
DA:849,1
DA:850,1
DA:852,1
DA:853,1
DA:854,1
DA:855,1
DA:856,1
DA:857,1
DA:859,1
DA:860,1
DA:861,1
DA:862,1
DA:863,1
DA:864,1
DA:866,1
DA:867,1
DA:868,1
DA:869,1
DA:870,1
DA:871,1
DA:872,1
DA:875,1
DA:876,1
DA:877,1
DA:878,1
DA:881,1
DA:884,1
DA:887,1
DA:890,1
DA:891,1
DA:894,1
DA:895,1
DA:898,1
DA:899,1
DA:900,1
DA:901,1
DA:902,1
DA:904,1
DA:905,1
DA:906,1
DA:907,1
DA:908,1
DA:909,1
DA:910,1
DA:911,1
DA:912,1
DA:913,1
DA:916,1
DA:917,1
DA:918,1
DA:919,1
DA:920,1
DA:921,1
DA:922,1
DA:923,1
DA:925,1
DA:926,1
DA:927,1
DA:930,1
DA:931,1
DA:932,1
DA:933,1
DA:934,1
DA:935,1
DA:936,1
DA:937,1
DA:940,1
DA:941,1
DA:942,1
DA:943,1
DA:944,1
DA:945,1
DA:946,1
DA:947,1
DA:949,1
DA:950,1
DA:951,1
DA:952,1
DA:953,1
DA:954,1
DA:957,1
DA:958,1
DA:959,1
DA:960,1
DA:963,1
DA:964,1
DA:965,1
DA:966,1
DA:968,1
DA:969,1
DA:970,1
DA:971,1
DA:972,1
DA:973,1
DA:974,1
DA:975,1
DA:978,1
DA:982,1
DA:983,1
DA:984,1
DA:985,1
DA:986,1
DA:987,1
DA:988,1
DA:989,1
DA:990,1
DA:991,1
DA:992,1
DA:993,1
DA:994,1
DA:995,1
DA:996,1
DA:997,1
DA:998,1
DA:999,1
DA:1000,1
DA:1001,1
DA:1002,1
DA:1003,1
DA:1004,1
DA:1005,1
DA:1006,1
DA:1007,1
DA:1008,1
DA:1009,1
DA:1010,1
DA:1011,1
DA:1014,1
DA:1015,1
DA:1016,1
DA:1017,1
DA:1018,1
DA:1019,1
DA:1022,1
DA:1023,1
DA:1024,1
DA:1025,1
DA:1026,1
DA:1027,1
DA:1028,1
DA:1029,1
DA:1030,1
DA:1031,1
DA:1032,0
DA:1034,1
DA:1037,1
DA:1038,1
DA:1039,1
DA:1040,1
DA:1041,1
DA:1042,1
DA:1043,1
DA:1044,1
DA:1045,1
DA:1046,1
DA:1047,1
DA:1048,1
DA:1049,1
DA:1050,1
DA:1051,1
DA:1052,1
DA:1053,1
DA:1055,1
DA:1056,1
DA:1057,1
DA:1058,1
DA:1059,1
DA:1060,1
DA:1061,0
DA:1064,0
DA:1066,1
DA:1069,1
DA:1070,1
DA:1071,1
DA:1072,1
DA:1073,1
DA:1074,1
DA:1075,1
DA:1076,1
DA:1077,1
DA:1078,1
DA:1079,1
DA:1080,1
DA:1081,1
DA:1082,1
DA:1083,1
DA:1084,1
DA:1085,1
DA:1086,1
DA:1087,1
DA:1088,1
DA:1089,1
DA:1090,1
DA:1091,1
DA:1092,1
DA:1093,1
DA:1094,1
DA:1095,1
DA:1096,1
DA:1097,1
DA:1098,1
DA:1099,1
DA:1100,1
DA:1107,6
DA:1108,6
DA:1109,6
DA:1110,6
DA:1111,6
DA:1112,6
DA:1117,6
DA:1118,6
DA:1119,5
DA:1121,0
DA:1122,0
DA:1123,0
DA:1124,0
DA:1125,0
DA:1126,0
DA:1127,0
DA:1128,0
DA:1129,0
DA:1130,0
DA:1133,0
DA:1134,0
DA:1135,0
DA:1136,0
DA:1137,0
DA:1138,0
DA:1139,0
DA:1140,0
DA:1141,0
DA:1142,0
DA:1145,1
DA:1146,1
DA:1147,1
DA:1148,1
DA:1149,1
DA:1150,1
DA:1152,0
DA:1153,0
DA:1154,0
DA:1155,0
DA:1156,0
DA:1157,0
DA:1158,0
DA:1159,0
DA:1161,0
DA:1162,0
DA:1163,0
DA:1164,0
DA:1165,0
DA:1166,0
DA:1167,0
DA:1168,0
DA:1169,0
DA:1171,0
DA:1172,0
DA:1173,0
DA:1174,0
DA:1175,0
DA:1176,0
DA:1178,0
DA:1179,0
DA:1180,0
DA:1181,0
DA:1182,0
DA:1183,0
DA:1184,0
DA:1185,0
DA:1187,0
DA:1188,0
DA:1191,0
DA:1192,0
DA:1193,0
DA:1194,0
DA:1195,0
DA:1196,0
DA:1197,0
DA:1198,0
DA:1199,0
DA:1200,0
DA:1202,0
DA:1203,0
DA:1204,0
DA:1205,0
DA:1206,0
DA:1207,0
DA:1208,0
DA:1209,0
DA:1210,0
DA:1211,0
DA:1212,0
DA:1213,0
DA:1214,0
DA:1215,0
DA:1218,6
DA:1223,2
DA:1224,2
DA:1225,2
DA:1226,2
DA:1227,2
DA:1228,2
DA:1229,2
DA:1230,2
DA:1235,1
DA:1236,1
DA:1237,1
DA:1238,2
DA:1239,1
DA:1240,1
DA:1241,1
DA:1246,0
DA:1247,0
DA:1248,0
DA:1249,0
DA:1250,0
DA:1251,0
DA:1252,0
DA:1253,0
DA:1254,0
DA:1259,1
DA:1260,1
DA:1261,1
DA:1262,1
DA:1263,1
BRF:0
BRH:0
LF:571
LH:432
end_of_record